	.text
	.syntax unified
	.eabi_attribute	67, "2.09"	@ Tag_conformance
	.cpu	cortex-a8
	.eabi_attribute	6, 10	@ Tag_CPU_arch
	.eabi_attribute	7, 65	@ Tag_CPU_arch_profile
	.eabi_attribute	8, 1	@ Tag_ARM_ISA_use
	.eabi_attribute	9, 2	@ Tag_THUMB_ISA_use
	.fpu	neon
	.eabi_attribute	17, 1	@ Tag_ABI_PCS_GOT_use
	.eabi_attribute	20, 2	@ Tag_ABI_FP_denormal
	.eabi_attribute	23, 1	@ Tag_ABI_FP_number_model
	.eabi_attribute	34, 1	@ Tag_CPU_unaligned_access
	.eabi_attribute	24, 1	@ Tag_ABI_align_needed
	.eabi_attribute	25, 1	@ Tag_ABI_align_preserved
	.eabi_attribute	28, 1	@ Tag_ABI_VFP_args
	.eabi_attribute	38, 1	@ Tag_ABI_FP_16bit_format
	.eabi_attribute	18, 4	@ Tag_ABI_PCS_wchar_t
	.eabi_attribute	26, 2	@ Tag_ABI_enum_size
	.eabi_attribute	14, 0	@ Tag_ABI_PCS_R9_use
	.eabi_attribute	68, 1	@ Tag_Virtualization_use
	.file	"/root/Bela/projects/final_project_v5_debugRec/build/envelope.bc"
	.file	1 "/usr/bin/../lib/gcc/arm-linux-gnueabihf/6.3.0/../../../../include/arm-linux-gnueabihf/c++/6.3.0/bits" "c++config.h"
	.file	2 "/usr/bin/../lib/gcc/arm-linux-gnueabihf/6.3.0/../../../../include/c++/6.3.0/bits" "cpp_type_traits.h"
	.file	3 "/usr/bin/../lib/gcc/arm-linux-gnueabihf/6.3.0/../../../../include/c++/6.3.0/bits" "alloc_traits.h"
	.file	4 "/usr/bin/../lib/gcc/arm-linux-gnueabihf/6.3.0/../../../../include/c++/6.3.0/ext" "new_allocator.h"
	.file	5 "/usr/bin/../lib/gcc/arm-linux-gnueabihf/6.3.0/../../../../include/arm-linux-gnueabihf/c++/6.3.0/bits" "c++allocator.h"
	.file	6 "/usr/bin/../lib/gcc/arm-linux-gnueabihf/6.3.0/../../../../include/c++/6.3.0/bits" "allocator.h"
	.file	7 "/usr/bin/../lib/gcc/arm-linux-gnueabihf/6.3.0/../../../../include/c++/6.3.0/ext" "alloc_traits.h"
	.file	8 "/usr/bin/../lib/gcc/arm-linux-gnueabihf/6.3.0/../../../../include/c++/6.3.0/bits" "stl_vector.h"
	.file	9 "/usr/bin/../lib/gcc/arm-linux-gnueabihf/6.3.0/../../../../include/c++/6.3.0/bits" "stl_iterator.h"
	.file	10 "/usr/bin/../lib/gcc/arm-linux-gnueabihf/6.3.0/../../../../include/c++/6.3.0" "type_traits"
	.file	11 "/usr/bin/../lib/gcc/arm-linux-gnueabihf/6.3.0/../../../../include/c++/6.3.0/bits" "stl_iterator_base_types.h"
	.file	12 "/usr/include/arm-linux-gnueabihf/bits" "math-finite.h"
	.file	13 "/usr/include/arm-linux-gnueabihf/bits" "mathcalls.h"
	.file	14 "/usr/include/arm-linux-gnueabihf/bits" "mathdef.h"
	.file	15 "/usr/bin/../lib/gcc/arm-linux-gnueabihf/6.3.0/../../../../include/c++/6.3.0/debug" "debug.h"
	.file	16 "/usr/bin/../lib/gcc/arm-linux-gnueabihf/6.3.0/../../../../include/c++/6.3.0/bits" "exception_ptr.h"
	.globl	_ZN8EnvelopeC2Effj
	.p2align	2
	.type	_ZN8EnvelopeC2Effj,%function
_ZN8EnvelopeC2Effj:                     @ @_ZN8EnvelopeC2Effj
.Lfunc_begin0:
	.file	17 "/root/Bela/projects/final_project_v5_debugRec" "envelope.cpp"
	.loc	17 20 0                 @ /root/Bela/projects/final_project_v5_debugRec/envelope.cpp:20:0
	.fnstart
	.cfi_startproc
@ BB#0:
	.save	{r4, r5, r11, lr}
	push	{r4, r5, r11, lr}
.Ltmp3:
	.cfi_def_cfa_offset 16
.Ltmp4:
	.cfi_offset lr, -4
.Ltmp5:
	.cfi_offset r11, -8
.Ltmp6:
	.cfi_offset r5, -12
.Ltmp7:
	.cfi_offset r4, -16
	.setfp	r11, sp, #8
	add	r11, sp, #8
.Ltmp8:
	.cfi_def_cfa r11, 8
	@DEBUG_VALUE: Envelope:this <- %R0
	@DEBUG_VALUE: Envelope:sampleRate <- %S0
	@DEBUG_VALUE: Envelope:bpm <- %S1
	@DEBUG_VALUE: Envelope:lengthType <- %R1
	mov	r4, r0
.Ltmp9:
	@DEBUG_VALUE: Envelope:this <- %R4
	mov	r0, #0
.Ltmp10:
	.loc	8 87 22 prologue_end    @ /usr/bin/../lib/gcc/arm-linux-gnueabihf/6.3.0/../../../../include/c++/6.3.0/bits/stl_vector.h:87:22
	str	r0, [r4]
	.loc	8 87 34 is_stmt 0       @ /usr/bin/../lib/gcc/arm-linux-gnueabihf/6.3.0/../../../../include/c++/6.3.0/bits/stl_vector.h:87:34
	str	r0, [r4, #4]
	.loc	8 87 47                 @ /usr/bin/../lib/gcc/arm-linux-gnueabihf/6.3.0/../../../../include/c++/6.3.0/bits/stl_vector.h:87:47
	str	r0, [r4, #8]
.Ltmp11:
	.loc	17 21 2 is_stmt 1       @ /root/Bela/projects/final_project_v5_debugRec/envelope.cpp:21:2
.Ltmp0:
	mov	r0, r4
	bl	_ZN8Envelope5setupEffj
.Ltmp12:
.Ltmp1:
.Ltmp13:
@ BB#1:
	@DEBUG_VALUE: Envelope:this <- %R4
	.loc	17 22 1                 @ /root/Bela/projects/final_project_v5_debugRec/envelope.cpp:22:1
	mov	r0, r4
	pop	{r4, r5, r11, pc}
.Ltmp14:
.LBB0_2:
	@DEBUG_VALUE: Envelope:this <- %R4
.Ltmp2:
	mov	r5, r0
.Ltmp15:
	.loc	8 160 37                @ /usr/bin/../lib/gcc/arm-linux-gnueabihf/6.3.0/../../../../include/c++/6.3.0/bits/stl_vector.h:160:37
	ldr	r0, [r4]
.Ltmp16:
	@DEBUG_VALUE: _M_deallocate:__p <- %R0
	@DEBUG_VALUE: deallocate:__p <- %R0
	@DEBUG_VALUE: deallocate:__p <- %R0
	.loc	8 177 6                 @ /usr/bin/../lib/gcc/arm-linux-gnueabihf/6.3.0/../../../../include/c++/6.3.0/bits/stl_vector.h:177:6
	cmp	r0, #0
	beq	.LBB0_4
.Ltmp17:
@ BB#3:
	@DEBUG_VALUE: deallocate:__p <- %R0
	@DEBUG_VALUE: deallocate:__p <- %R0
	@DEBUG_VALUE: _M_deallocate:__p <- %R0
	@DEBUG_VALUE: Envelope:this <- %R4
	.loc	4 110 9                 @ /usr/bin/../lib/gcc/arm-linux-gnueabihf/6.3.0/../../../../include/c++/6.3.0/ext/new_allocator.h:110:9
	bl	_ZdlPv
.Ltmp18:
.LBB0_4:                                @ %_ZNSt6vectorIfSaIfEED2Ev.exit
	@DEBUG_VALUE: Envelope:this <- %R4
	mov	r0, r5
	mov	lr, pc
	b	_Unwind_Resume
.Lfunc_end0:
	.size	_ZN8EnvelopeC2Effj, .Lfunc_end0-_ZN8EnvelopeC2Effj
	.cfi_endproc
	.file	18 "/root/Bela/projects/final_project_v5_debugRec" "envelope.h"
	.globl	__gxx_personality_v0
	.personality __gxx_personality_v0
	.handlerdata
	.p2align	2
GCC_except_table0:
.Lexception0:
	.byte	255                     @ @LPStart Encoding = omit
	.byte	0                       @ @TType Encoding = absptr
	.asciz	"\234"                  @ @TType base offset
	.byte	3                       @ Call site Encoding = udata4
	.byte	26                      @ Call site table length
	.long	.Ltmp0-.Lfunc_begin0    @ >> Call Site 1 <<
	.long	.Ltmp1-.Ltmp0           @   Call between .Ltmp0 and .Ltmp1
	.long	.Ltmp2-.Lfunc_begin0    @     jumps to .Ltmp2
	.byte	0                       @   On action: cleanup
	.long	.Ltmp1-.Lfunc_begin0    @ >> Call Site 2 <<
	.long	.Lfunc_end0-.Ltmp1      @   Call between .Ltmp1 and .Lfunc_end0
	.long	0                       @     has no landing pad
	.byte	0                       @   On action: cleanup
	.p2align	2
	.fnend

	.globl	_ZN8Envelope5setupEffj
	.p2align	3
	.type	_ZN8Envelope5setupEffj,%function
_ZN8Envelope5setupEffj:                 @ @_ZN8Envelope5setupEffj
.Lfunc_begin1:
	.loc	17 25 0                 @ /root/Bela/projects/final_project_v5_debugRec/envelope.cpp:25:0
	.fnstart
	.cfi_startproc
@ BB#0:
	.save	{r4, r5, r6, r10, r11, lr}
	push	{r4, r5, r6, r10, r11, lr}
.Ltmp19:
	.cfi_def_cfa_offset 24
.Ltmp20:
	.cfi_offset lr, -4
.Ltmp21:
	.cfi_offset r11, -8
.Ltmp22:
	.cfi_offset r10, -12
.Ltmp23:
	.cfi_offset r6, -16
.Ltmp24:
	.cfi_offset r5, -20
.Ltmp25:
	.cfi_offset r4, -24
	.setfp	r11, sp, #16
	add	r11, sp, #16
.Ltmp26:
	.cfi_def_cfa r11, 8
	@DEBUG_VALUE: setup:this <- %R0
	@DEBUG_VALUE: setup:sampleRate <- %S0
	@DEBUG_VALUE: setup:bpm <- %S1
	@DEBUG_VALUE: setup:lengthType <- %R1
.Ltmp27:
	.loc	17 28 23 prologue_end   @ /root/Bela/projects/final_project_v5_debugRec/envelope.cpp:28:23
	vmov.f32	d1, #1.000000e+00
	mov	r5, r1
.Ltmp28:
	@DEBUG_VALUE: setup:lengthType <- %R5
	mov	r4, r0
.Ltmp29:
	@DEBUG_VALUE: setup:this <- %R4
	mov	r6, #0
	vdiv.f32	s2, s2, s0
	.loc	17 28 21 is_stmt 0      @ /root/Bela/projects/final_project_v5_debugRec/envelope.cpp:28:21
	vstr	s2, [r4, #20]
	.loc	17 31 14 is_stmt 1      @ /root/Bela/projects/final_project_v5_debugRec/envelope.cpp:31:14
	str	r5, [r4, #12]
	.loc	17 32 7                 @ /root/Bela/projects/final_project_v5_debugRec/envelope.cpp:32:7
	vstr	s1, [r4, #36]
	.loc	17 33 14                @ /root/Bela/projects/final_project_v5_debugRec/envelope.cpp:33:14
	vstr	s0, [r4, #24]
.Ltmp30:
	@DEBUG_VALUE: operator=:__move_storage <- 1
	.file	19 "/usr/bin/../lib/gcc/arm-linux-gnueabihf/6.3.0/../../../../include/c++/6.3.0/bits" "move.h"
	.loc	19 190 19               @ /usr/bin/../lib/gcc/arm-linux-gnueabihf/6.3.0/../../../../include/c++/6.3.0/bits/move.h:190:19
	ldr	r0, [r4]
.Ltmp31:
	@DEBUG_VALUE: _M_deallocate:__p <- %R0
	@DEBUG_VALUE: deallocate:__p <- %R0
	@DEBUG_VALUE: deallocate:__p <- %R0
	.loc	19 191 11               @ /usr/bin/../lib/gcc/arm-linux-gnueabihf/6.3.0/../../../../include/c++/6.3.0/bits/move.h:191:11
	str	r6, [r4, #4]
	str	r6, [r4]
.Ltmp32:
	.loc	8 177 6                 @ /usr/bin/../lib/gcc/arm-linux-gnueabihf/6.3.0/../../../../include/c++/6.3.0/bits/stl_vector.h:177:6
	cmp	r0, #0
.Ltmp33:
	.loc	19 191 11               @ /usr/bin/../lib/gcc/arm-linux-gnueabihf/6.3.0/../../../../include/c++/6.3.0/bits/move.h:191:11
	str	r6, [r4, #8]
	beq	.LBB1_2
.Ltmp34:
@ BB#1:
	@DEBUG_VALUE: deallocate:__p <- %R0
	@DEBUG_VALUE: deallocate:__p <- %R0
	@DEBUG_VALUE: _M_deallocate:__p <- %R0
	@DEBUG_VALUE: setup:this <- %R4
	@DEBUG_VALUE: setup:lengthType <- %R5
	@DEBUG_VALUE: setup:bpm <- %S1
	@DEBUG_VALUE: setup:sampleRate <- %S0
	.loc	4 110 9                 @ /usr/bin/../lib/gcc/arm-linux-gnueabihf/6.3.0/../../../../include/c++/6.3.0/ext/new_allocator.h:110:9
	bl	_ZdlPv
.Ltmp35:
.LBB1_2:                                @ %_ZNSt6vectorIfSaIfEED2Ev.exit
	@DEBUG_VALUE: setup:this <- %R4
	@DEBUG_VALUE: setup:lengthType <- %R5
	@DEBUG_VALUE: setLengthType:this <- %R4
	@DEBUG_VALUE: setLengthType:lengthType <- %R5
	.loc	17 77 14                @ /root/Bela/projects/final_project_v5_debugRec/envelope.cpp:77:14
	str	r5, [r4, #12]
	.loc	17 83 6                 @ /root/Bela/projects/final_project_v5_debugRec/envelope.cpp:83:6
	cmp	r5, #0
	.loc	17 80 15                @ /root/Bela/projects/final_project_v5_debugRec/envelope.cpp:80:15
	str	r6, [r4, #32]
	.loc	17 81 16                @ /root/Bela/projects/final_project_v5_debugRec/envelope.cpp:81:16
	str	r6, [r4, #40]
	.loc	17 83 6                 @ /root/Bela/projects/final_project_v5_debugRec/envelope.cpp:83:6
	beq	.LBB1_5
.Ltmp36:
@ BB#3:                                 @ %_ZNSt6vectorIfSaIfEED2Ev.exit
	@DEBUG_VALUE: setLengthType:lengthType <- %R5
	@DEBUG_VALUE: setLengthType:this <- %R4
	@DEBUG_VALUE: setup:this <- %R4
	@DEBUG_VALUE: setup:lengthType <- %R5
	cmp	r5, #1
	bne	.LBB1_7
.Ltmp37:
@ BB#4:
	@DEBUG_VALUE: setLengthType:lengthType <- %R5
	@DEBUG_VALUE: setLengthType:this <- %R4
	@DEBUG_VALUE: setup:this <- %R4
	@DEBUG_VALUE: setup:lengthType <- %R5
	.loc	17 90 32                @ /root/Bela/projects/final_project_v5_debugRec/envelope.cpp:90:32
	vldr	s0, [r4, #24]
	.loc	17 90 30 is_stmt 0      @ /root/Bela/projects/final_project_v5_debugRec/envelope.cpp:90:30
	vmov.f64	d17, #3.000000e+01
	.loc	17 90 32                @ /root/Bela/projects/final_project_v5_debugRec/envelope.cpp:90:32
	vcvt.f64.f32	d16, s0
	.loc	17 90 30                @ /root/Bela/projects/final_project_v5_debugRec/envelope.cpp:90:30
	vmul.f64	d16, d16, d17
	.loc	17 90 46                @ /root/Bela/projects/final_project_v5_debugRec/envelope.cpp:90:46
	vldr	s2, [r4, #36]
	.loc	17 91 20 is_stmt 1      @ /root/Bela/projects/final_project_v5_debugRec/envelope.cpp:91:20
	vldr	d18, .LCPI1_0
	b	.LBB1_6
.Ltmp38:
.LBB1_5:
	@DEBUG_VALUE: setLengthType:lengthType <- %R5
	@DEBUG_VALUE: setLengthType:this <- %R4
	@DEBUG_VALUE: setup:this <- %R4
	@DEBUG_VALUE: setup:lengthType <- %R5
	.loc	17 85 32                @ /root/Bela/projects/final_project_v5_debugRec/envelope.cpp:85:32
	vldr	s0, [r4, #24]
	.loc	17 85 44 is_stmt 0      @ /root/Bela/projects/final_project_v5_debugRec/envelope.cpp:85:44
	vldr	d17, .LCPI1_1
	.loc	17 85 32                @ /root/Bela/projects/final_project_v5_debugRec/envelope.cpp:85:32
	vcvt.f64.f32	d16, s0
	.loc	17 85 44                @ /root/Bela/projects/final_project_v5_debugRec/envelope.cpp:85:44
	vmul.f64	d16, d16, d17
	.loc	17 85 50                @ /root/Bela/projects/final_project_v5_debugRec/envelope.cpp:85:50
	vldr	s2, [r4, #36]
	.loc	17 86 20 is_stmt 1      @ /root/Bela/projects/final_project_v5_debugRec/envelope.cpp:86:20
	vldr	d18, .LCPI1_2
.Ltmp39:
.LBB1_6:
	@DEBUG_VALUE: setLengthType:lengthType <- %R5
	@DEBUG_VALUE: setLengthType:this <- %R4
	@DEBUG_VALUE: setup:this <- %R4
	@DEBUG_VALUE: setup:lengthType <- %R5
	.loc	17 85 50                @ /root/Bela/projects/final_project_v5_debugRec/envelope.cpp:85:50
	vcvt.f64.f32	d17, s2
	.loc	17 85 48 is_stmt 0      @ /root/Bela/projects/final_project_v5_debugRec/envelope.cpp:85:48
	vdiv.f64	d16, d16, d17
.Ltmp40:
	.loc	17 90 17 is_stmt 1      @ /root/Bela/projects/final_project_v5_debugRec/envelope.cpp:90:17
	vcvt.u32.f64	s0, d16
	.loc	17 90 19 is_stmt 0      @ /root/Bela/projects/final_project_v5_debugRec/envelope.cpp:90:19
	vcvt.u32.f64	s2, d16
	vmov	r0, s2
	.loc	17 90 17                @ /root/Bela/projects/final_project_v5_debugRec/envelope.cpp:90:17
	vstr	s0, [r4, #16]
	.loc	17 91 20 is_stmt 1      @ /root/Bela/projects/final_project_v5_debugRec/envelope.cpp:91:20
	vmul.f64	d17, d17, d18
	.loc	17 91 16 is_stmt 0      @ /root/Bela/projects/final_project_v5_debugRec/envelope.cpp:91:16
	vcvt.f32.f64	s4, d17
	.loc	17 91 14                @ /root/Bela/projects/final_project_v5_debugRec/envelope.cpp:91:14
	vstr	s4, [r4, #28]
	b	.LBB1_8
.Ltmp41:
.LBB1_7:                                @ %._crit_edge.i
	@DEBUG_VALUE: setLengthType:lengthType <- %R5
	@DEBUG_VALUE: setLengthType:this <- %R4
	@DEBUG_VALUE: setup:this <- %R4
	@DEBUG_VALUE: setup:lengthType <- %R5
	.loc	17 94 16 is_stmt 1      @ /root/Bela/projects/final_project_v5_debugRec/envelope.cpp:94:16
	ldr	r0, [r4, #16]
.Ltmp42:
.LBB1_8:
	@DEBUG_VALUE: setLengthType:lengthType <- %R5
	@DEBUG_VALUE: setLengthType:this <- %R4
	@DEBUG_VALUE: setup:this <- %R4
	@DEBUG_VALUE: setup:lengthType <- %R5
	@DEBUG_VALUE: resize:__new_size <- %R0
	.loc	8 656 66                @ /usr/bin/../lib/gcc/arm-linux-gnueabihf/6.3.0/../../../../include/c++/6.3.0/bits/stl_vector.h:656:66
	ldm	r4, {r1, r2}
	.loc	8 656 50 is_stmt 0      @ /usr/bin/../lib/gcc/arm-linux-gnueabihf/6.3.0/../../../../include/c++/6.3.0/bits/stl_vector.h:656:50
	sub	r3, r2, r1
	asr	r2, r3, #2
.Ltmp43:
	.loc	8 676 6 is_stmt 1       @ /usr/bin/../lib/gcc/arm-linux-gnueabihf/6.3.0/../../../../include/c++/6.3.0/bits/stl_vector.h:676:6
	cmp	r0, r3, asr #2
	bls	.LBB1_10
.Ltmp44:
@ BB#9:
	@DEBUG_VALUE: resize:__new_size <- %R0
	@DEBUG_VALUE: setLengthType:lengthType <- %R5
	@DEBUG_VALUE: setLengthType:this <- %R4
	@DEBUG_VALUE: setup:this <- %R4
	@DEBUG_VALUE: setup:lengthType <- %R5
	.loc	8 677 33                @ /usr/bin/../lib/gcc/arm-linux-gnueabihf/6.3.0/../../../../include/c++/6.3.0/bits/stl_vector.h:677:33
	sub	r1, r0, r2
	.loc	8 677 4 is_stmt 0 discriminator 1 @ /usr/bin/../lib/gcc/arm-linux-gnueabihf/6.3.0/../../../../include/c++/6.3.0/bits/stl_vector.h:677:4
	mov	r0, r4
.Ltmp45:
	pop	{r4, r5, r6, r10, r11, lr}
.Ltmp46:
	b	_ZNSt6vectorIfSaIfEE17_M_default_appendEj
.LBB1_10:
.Ltmp47:
	@DEBUG_VALUE: resize:__new_size <- %R0
	@DEBUG_VALUE: setLengthType:lengthType <- %R5
	@DEBUG_VALUE: setLengthType:this <- %R4
	@DEBUG_VALUE: setup:this <- %R4
	@DEBUG_VALUE: setup:lengthType <- %R5
	.loc	8 678 11 is_stmt 1      @ /usr/bin/../lib/gcc/arm-linux-gnueabihf/6.3.0/../../../../include/c++/6.3.0/bits/stl_vector.h:678:11
	cmp	r0, r2
.Ltmp48:
	.loc	8 679 43                @ /usr/bin/../lib/gcc/arm-linux-gnueabihf/6.3.0/../../../../include/c++/6.3.0/bits/stl_vector.h:679:43
	addlo	r0, r1, r0, lsl #2
.Ltmp49:
	@DEBUG_VALUE: _M_erase_at_end:__pos <- %R0
	.loc	8 1437 26               @ /usr/bin/../lib/gcc/arm-linux-gnueabihf/6.3.0/../../../../include/c++/6.3.0/bits/stl_vector.h:1437:26
	strlo	r0, [r4, #4]
.Ltmp50:
	.loc	17 41 1                 @ /root/Bela/projects/final_project_v5_debugRec/envelope.cpp:41:1
	pop	{r4, r5, r6, r10, r11, pc}
.Ltmp51:
	.p2align	3
@ BB#11:
.LCPI1_0:
	.long	286331153               @ double 0.033333333333333333
	.long	1067520273
.LCPI1_1:
	.long	0                       @ double 240
	.long	1080950784
.LCPI1_2:
	.long	286331153               @ double 0.0041666666666666666
	.long	1064374545
.Lfunc_end1:
	.size	_ZN8Envelope5setupEffj, .Lfunc_end1-_ZN8Envelope5setupEffj
	.cfi_endproc
	.fnend

	.globl	_ZN8Envelope13setLengthTypeEi
	.p2align	3
	.type	_ZN8Envelope13setLengthTypeEi,%function
_ZN8Envelope13setLengthTypeEi:          @ @_ZN8Envelope13setLengthTypeEi
.Lfunc_begin2:
	.loc	17 76 0                 @ /root/Bela/projects/final_project_v5_debugRec/envelope.cpp:76:0
	.fnstart
	.cfi_startproc
@ BB#0:
	@DEBUG_VALUE: setLengthType:this <- %R0
	@DEBUG_VALUE: setLengthType:lengthType <- %R1
	mov	r2, #0
.Ltmp52:
	.loc	17 77 14 prologue_end   @ /root/Bela/projects/final_project_v5_debugRec/envelope.cpp:77:14
	str	r1, [r0, #12]
	.loc	17 80 15                @ /root/Bela/projects/final_project_v5_debugRec/envelope.cpp:80:15
	str	r2, [r0, #32]
	.loc	17 83 6                 @ /root/Bela/projects/final_project_v5_debugRec/envelope.cpp:83:6
	cmp	r1, #0
	.loc	17 81 16                @ /root/Bela/projects/final_project_v5_debugRec/envelope.cpp:81:16
	str	r2, [r0, #40]
	.loc	17 83 6                 @ /root/Bela/projects/final_project_v5_debugRec/envelope.cpp:83:6
	beq	.LBB2_3
.Ltmp53:
@ BB#1:
	@DEBUG_VALUE: setLengthType:lengthType <- %R1
	@DEBUG_VALUE: setLengthType:this <- %R0
	cmp	r1, #1
	bne	.LBB2_5
.Ltmp54:
@ BB#2:
	@DEBUG_VALUE: setLengthType:lengthType <- %R1
	@DEBUG_VALUE: setLengthType:this <- %R0
	.loc	17 90 32                @ /root/Bela/projects/final_project_v5_debugRec/envelope.cpp:90:32
	vldr	s0, [r0, #24]
	.loc	17 90 30 is_stmt 0      @ /root/Bela/projects/final_project_v5_debugRec/envelope.cpp:90:30
	vmov.f64	d17, #3.000000e+01
	.loc	17 90 32                @ /root/Bela/projects/final_project_v5_debugRec/envelope.cpp:90:32
	vcvt.f64.f32	d16, s0
	.loc	17 90 30                @ /root/Bela/projects/final_project_v5_debugRec/envelope.cpp:90:30
	vmul.f64	d16, d16, d17
	.loc	17 90 46                @ /root/Bela/projects/final_project_v5_debugRec/envelope.cpp:90:46
	vldr	s2, [r0, #36]
	.loc	17 91 20 is_stmt 1      @ /root/Bela/projects/final_project_v5_debugRec/envelope.cpp:91:20
	vldr	d18, .LCPI2_0
	b	.LBB2_4
.Ltmp55:
.LBB2_3:
	@DEBUG_VALUE: setLengthType:lengthType <- %R1
	@DEBUG_VALUE: setLengthType:this <- %R0
	.loc	17 85 32                @ /root/Bela/projects/final_project_v5_debugRec/envelope.cpp:85:32
	vldr	s0, [r0, #24]
	.loc	17 85 44 is_stmt 0      @ /root/Bela/projects/final_project_v5_debugRec/envelope.cpp:85:44
	vldr	d17, .LCPI2_1
	.loc	17 85 32                @ /root/Bela/projects/final_project_v5_debugRec/envelope.cpp:85:32
	vcvt.f64.f32	d16, s0
	.loc	17 85 44                @ /root/Bela/projects/final_project_v5_debugRec/envelope.cpp:85:44
	vmul.f64	d16, d16, d17
	.loc	17 85 50                @ /root/Bela/projects/final_project_v5_debugRec/envelope.cpp:85:50
	vldr	s2, [r0, #36]
	.loc	17 86 20 is_stmt 1      @ /root/Bela/projects/final_project_v5_debugRec/envelope.cpp:86:20
	vldr	d18, .LCPI2_2
.Ltmp56:
.LBB2_4:
	@DEBUG_VALUE: setLengthType:lengthType <- %R1
	@DEBUG_VALUE: setLengthType:this <- %R0
	.loc	17 85 50                @ /root/Bela/projects/final_project_v5_debugRec/envelope.cpp:85:50
	vcvt.f64.f32	d17, s2
	.loc	17 85 48 is_stmt 0      @ /root/Bela/projects/final_project_v5_debugRec/envelope.cpp:85:48
	vdiv.f64	d16, d16, d17
.Ltmp57:
	.loc	17 90 17 is_stmt 1      @ /root/Bela/projects/final_project_v5_debugRec/envelope.cpp:90:17
	vcvt.u32.f64	s0, d16
	.loc	17 90 19 is_stmt 0      @ /root/Bela/projects/final_project_v5_debugRec/envelope.cpp:90:19
	vcvt.u32.f64	s2, d16
	vmov	r1, s2
.Ltmp58:
	.loc	17 90 17                @ /root/Bela/projects/final_project_v5_debugRec/envelope.cpp:90:17
	vstr	s0, [r0, #16]
	.loc	17 91 20 is_stmt 1      @ /root/Bela/projects/final_project_v5_debugRec/envelope.cpp:91:20
	vmul.f64	d17, d17, d18
	.loc	17 91 16 is_stmt 0      @ /root/Bela/projects/final_project_v5_debugRec/envelope.cpp:91:16
	vcvt.f32.f64	s4, d17
	.loc	17 91 14                @ /root/Bela/projects/final_project_v5_debugRec/envelope.cpp:91:14
	vstr	s4, [r0, #28]
	b	.LBB2_6
.Ltmp59:
.LBB2_5:                                @ %._crit_edge
	@DEBUG_VALUE: setLengthType:lengthType <- %R1
	@DEBUG_VALUE: setLengthType:this <- %R0
	.loc	17 94 16 is_stmt 1      @ /root/Bela/projects/final_project_v5_debugRec/envelope.cpp:94:16
	ldr	r1, [r0, #16]
.Ltmp60:
.LBB2_6:
	@DEBUG_VALUE: setLengthType:this <- %R0
	@DEBUG_VALUE: resize:__new_size <- %R1
	.loc	8 656 66                @ /usr/bin/../lib/gcc/arm-linux-gnueabihf/6.3.0/../../../../include/c++/6.3.0/bits/stl_vector.h:656:66
	ldr	r12, [r0]
	.loc	8 656 40 is_stmt 0      @ /usr/bin/../lib/gcc/arm-linux-gnueabihf/6.3.0/../../../../include/c++/6.3.0/bits/stl_vector.h:656:40
	ldr	r3, [r0, #4]
	.loc	8 656 50                @ /usr/bin/../lib/gcc/arm-linux-gnueabihf/6.3.0/../../../../include/c++/6.3.0/bits/stl_vector.h:656:50
	sub	r2, r3, r12
	asr	r3, r2, #2
.Ltmp61:
	.loc	8 676 6 is_stmt 1       @ /usr/bin/../lib/gcc/arm-linux-gnueabihf/6.3.0/../../../../include/c++/6.3.0/bits/stl_vector.h:676:6
	cmp	r1, r2, asr #2
	bls	.LBB2_8
.Ltmp62:
@ BB#7:
	@DEBUG_VALUE: resize:__new_size <- %R1
	@DEBUG_VALUE: setLengthType:this <- %R0
	.loc	8 677 33                @ /usr/bin/../lib/gcc/arm-linux-gnueabihf/6.3.0/../../../../include/c++/6.3.0/bits/stl_vector.h:677:33
	sub	r1, r1, r3
.Ltmp63:
	@DEBUG_VALUE: resize:this <- %R0
	@DEBUG_VALUE: size:this <- %R0
	@DEBUG_VALUE: size:this <- %R0
	@DEBUG_VALUE: _M_erase_at_end:this <- %R0
	.loc	8 677 4 is_stmt 0 discriminator 1 @ /usr/bin/../lib/gcc/arm-linux-gnueabihf/6.3.0/../../../../include/c++/6.3.0/bits/stl_vector.h:677:4
	b	_ZNSt6vectorIfSaIfEE17_M_default_appendEj
.LBB2_8:
.Ltmp64:
	@DEBUG_VALUE: resize:__new_size <- %R1
	@DEBUG_VALUE: setLengthType:this <- %R0
	.loc	8 678 11 is_stmt 1      @ /usr/bin/../lib/gcc/arm-linux-gnueabihf/6.3.0/../../../../include/c++/6.3.0/bits/stl_vector.h:678:11
	cmp	r1, r3
.Ltmp65:
	.loc	8 679 43                @ /usr/bin/../lib/gcc/arm-linux-gnueabihf/6.3.0/../../../../include/c++/6.3.0/bits/stl_vector.h:679:43
	addlo	r1, r12, r1, lsl #2
.Ltmp66:
	@DEBUG_VALUE: _M_erase_at_end:__pos <- %R1
	.loc	8 1437 26               @ /usr/bin/../lib/gcc/arm-linux-gnueabihf/6.3.0/../../../../include/c++/6.3.0/bits/stl_vector.h:1437:26
	strlo	r1, [r0, #4]
.Ltmp67:
	.loc	17 96 1                 @ /root/Bela/projects/final_project_v5_debugRec/envelope.cpp:96:1
	bx	lr
.Ltmp68:
	.p2align	3
@ BB#9:
.LCPI2_0:
	.long	286331153               @ double 0.033333333333333333
	.long	1067520273
.LCPI2_1:
	.long	0                       @ double 240
	.long	1080950784
.LCPI2_2:
	.long	286331153               @ double 0.0041666666666666666
	.long	1064374545
.Lfunc_end2:
	.size	_ZN8Envelope13setLengthTypeEi, .Lfunc_end2-_ZN8Envelope13setLengthTypeEi
	.cfi_endproc
	.fnend

	.globl	_ZN8Envelope14beginRecordingEv
	.p2align	2
	.type	_ZN8Envelope14beginRecordingEv,%function
_ZN8Envelope14beginRecordingEv:         @ @_ZN8Envelope14beginRecordingEv
.Lfunc_begin3:
	.loc	17 45 0                 @ /root/Bela/projects/final_project_v5_debugRec/envelope.cpp:45:0
	.fnstart
	.cfi_startproc
@ BB#0:
	@DEBUG_VALUE: beginRecording:this <- %R0
	.loc	17 46 16 prologue_end   @ /root/Bela/projects/final_project_v5_debugRec/envelope.cpp:46:16
	mov	r1, #0
	str	r1, [r0, #40]
	.loc	17 47 1                 @ /root/Bela/projects/final_project_v5_debugRec/envelope.cpp:47:1
	bx	lr
.Ltmp69:
.Lfunc_end3:
	.size	_ZN8Envelope14beginRecordingEv, .Lfunc_end3-_ZN8Envelope14beginRecordingEv
	.cfi_endproc
	.fnend

	.globl	_ZN8Envelope12recordSampleEf
	.p2align	2
	.type	_ZN8Envelope12recordSampleEf,%function
_ZN8Envelope12recordSampleEf:           @ @_ZN8Envelope12recordSampleEf
.Lfunc_begin4:
	.loc	17 51 0                 @ /root/Bela/projects/final_project_v5_debugRec/envelope.cpp:51:0
	.fnstart
	.cfi_startproc
@ BB#0:
	@DEBUG_VALUE: recordSample:this <- %R0
	@DEBUG_VALUE: recordSample:sample <- %S0
	.loc	17 52 22 prologue_end   @ /root/Bela/projects/final_project_v5_debugRec/envelope.cpp:52:22
	ldr	r1, [r0, #16]
	.loc	17 52 6 is_stmt 0       @ /root/Bela/projects/final_project_v5_debugRec/envelope.cpp:52:6
	vldr	s2, [r0, #40]
	.loc	17 52 22                @ /root/Bela/projects/final_project_v5_debugRec/envelope.cpp:52:22
	vmov	s4, r1
	vcvt.f32.u32	d2, d2
.Ltmp70:
	.loc	17 52 6                 @ /root/Bela/projects/final_project_v5_debugRec/envelope.cpp:52:6
	vcmpe.f32	s2, s4
	vmrs	APSR_nzcv, fpscr
	.loc	17 58 1 is_stmt 1       @ /root/Bela/projects/final_project_v5_debugRec/envelope.cpp:58:1
	bxge	lr
.Ltmp71:
	.loc	17 54 10                @ /root/Bela/projects/final_project_v5_debugRec/envelope.cpp:54:10
	vcvt.u32.f32	d1, d1
.Ltmp72:
	.loc	8 781 32                @ /usr/bin/../lib/gcc/arm-linux-gnueabihf/6.3.0/../../../../include/c++/6.3.0/bits/stl_vector.h:781:32
	ldr	r1, [r0]
.Ltmp73:
	.loc	17 55 16                @ /root/Bela/projects/final_project_v5_debugRec/envelope.cpp:55:16
	vmov.f32	d16, #1.000000e+00
	.loc	17 54 10                @ /root/Bela/projects/final_project_v5_debugRec/envelope.cpp:54:10
	vmov	r2, s2
.Ltmp74:
	@DEBUG_VALUE: operator[]:__n <- %R2
	.loc	8 781 41                @ /usr/bin/../lib/gcc/arm-linux-gnueabihf/6.3.0/../../../../include/c++/6.3.0/bits/stl_vector.h:781:41
	add	r1, r1, r2, lsl #2
.Ltmp75:
	.loc	17 54 25                @ /root/Bela/projects/final_project_v5_debugRec/envelope.cpp:54:25
	vstr	s0, [r1]
	.loc	17 55 16                @ /root/Bela/projects/final_project_v5_debugRec/envelope.cpp:55:16
	vldr	s0, [r0, #40]
.Ltmp76:
	vadd.f32	d0, d0, d16
	vstr	s0, [r0, #40]
.Ltmp77:
	.loc	17 58 1                 @ /root/Bela/projects/final_project_v5_debugRec/envelope.cpp:58:1
	bx	lr
.Ltmp78:
.Lfunc_end4:
	.size	_ZN8Envelope12recordSampleEf, .Lfunc_end4-_ZN8Envelope12recordSampleEf
	.cfi_endproc
	.fnend

	.globl	_ZN8Envelope6setBpmEf
	.p2align	3
	.type	_ZN8Envelope6setBpmEf,%function
_ZN8Envelope6setBpmEf:                  @ @_ZN8Envelope6setBpmEf
.Lfunc_begin5:
	.loc	17 62 0                 @ /root/Bela/projects/final_project_v5_debugRec/envelope.cpp:62:0
	.fnstart
	.cfi_startproc
@ BB#0:
	@DEBUG_VALUE: setBpm:this <- %R0
	@DEBUG_VALUE: setBpm:bpm <- %S0
	.loc	17 63 7 prologue_end    @ /root/Bela/projects/final_project_v5_debugRec/envelope.cpp:63:7
	vstr	s0, [r0, #36]
.Ltmp79:
	.loc	17 64 6                 @ /root/Bela/projects/final_project_v5_debugRec/envelope.cpp:64:6
	ldr	r1, [r0, #12]
.Ltmp80:
	.loc	17 64 6 is_stmt 0       @ /root/Bela/projects/final_project_v5_debugRec/envelope.cpp:64:6
	cmp	r1, #1
	beq	.LBB5_2
.Ltmp81:
@ BB#1:
	@DEBUG_VALUE: setBpm:bpm <- %S0
	@DEBUG_VALUE: setBpm:this <- %R0
	cmp	r1, #0
	.loc	17 72 1 is_stmt 1       @ /root/Bela/projects/final_project_v5_debugRec/envelope.cpp:72:1
	bxne	lr
.Ltmp82:
	.loc	17 66 36                @ /root/Bela/projects/final_project_v5_debugRec/envelope.cpp:66:36
	vcvt.f64.f32	d16, s0
	.loc	17 66 20 is_stmt 0      @ /root/Bela/projects/final_project_v5_debugRec/envelope.cpp:66:20
	vldr	d17, .LCPI5_1
	b	.LBB5_3
.Ltmp83:
.LBB5_2:
	@DEBUG_VALUE: setBpm:bpm <- %S0
	@DEBUG_VALUE: setBpm:this <- %R0
	.loc	17 70 30 is_stmt 1      @ /root/Bela/projects/final_project_v5_debugRec/envelope.cpp:70:30
	vcvt.f64.f32	d16, s0
	.loc	17 70 20 is_stmt 0      @ /root/Bela/projects/final_project_v5_debugRec/envelope.cpp:70:20
	vldr	d17, .LCPI5_0
.Ltmp84:
.LBB5_3:
	@DEBUG_VALUE: setBpm:bpm <- %S0
	@DEBUG_VALUE: setBpm:this <- %R0
	vmul.f64	d16, d16, d17
	.loc	17 70 16                @ /root/Bela/projects/final_project_v5_debugRec/envelope.cpp:70:16
	vcvt.f32.f64	s0, d16
.Ltmp85:
	.loc	17 70 14                @ /root/Bela/projects/final_project_v5_debugRec/envelope.cpp:70:14
	vstr	s0, [r0, #28]
.Ltmp86:
	.loc	17 72 1 is_stmt 1       @ /root/Bela/projects/final_project_v5_debugRec/envelope.cpp:72:1
	bx	lr
.Ltmp87:
	.p2align	3
@ BB#4:
.LCPI5_0:
	.long	286331153               @ double 0.033333333333333333
	.long	1067520273
.LCPI5_1:
	.long	286331153               @ double 0.0041666666666666666
	.long	1064374545
.Lfunc_end5:
	.size	_ZN8Envelope6setBpmEf, .Lfunc_end5-_ZN8Envelope6setBpmEf
	.cfi_endproc
	.fnend

	.globl	_ZN8Envelope13stopRecordingEv
	.p2align	2
	.type	_ZN8Envelope13stopRecordingEv,%function
_ZN8Envelope13stopRecordingEv:          @ @_ZN8Envelope13stopRecordingEv
.Lfunc_begin6:
	.loc	17 102 0                @ /root/Bela/projects/final_project_v5_debugRec/envelope.cpp:102:0
	.fnstart
	.cfi_startproc
@ BB#0:
	@DEBUG_VALUE: stopRecording:this <- %R0
	mov	r1, #0
.Ltmp88:
	.loc	17 103 16 prologue_end  @ /root/Bela/projects/final_project_v5_debugRec/envelope.cpp:103:16
	str	r1, [r0, #40]
	.loc	17 104 15               @ /root/Bela/projects/final_project_v5_debugRec/envelope.cpp:104:15
	str	r1, [r0, #32]
	.loc	17 105 1                @ /root/Bela/projects/final_project_v5_debugRec/envelope.cpp:105:1
	bx	lr
.Ltmp89:
.Lfunc_end6:
	.size	_ZN8Envelope13stopRecordingEv, .Lfunc_end6-_ZN8Envelope13stopRecordingEv
	.cfi_endproc
	.fnend

	.globl	_ZN8Envelope7restartEv
	.p2align	2
	.type	_ZN8Envelope7restartEv,%function
_ZN8Envelope7restartEv:                 @ @_ZN8Envelope7restartEv
.Lfunc_begin7:
	.loc	17 109 0                @ /root/Bela/projects/final_project_v5_debugRec/envelope.cpp:109:0
	.fnstart
	.cfi_startproc
@ BB#0:
	@DEBUG_VALUE: restart:this <- %R0
	.loc	17 110 15 prologue_end  @ /root/Bela/projects/final_project_v5_debugRec/envelope.cpp:110:15
	mov	r1, #0
	str	r1, [r0, #32]
	.loc	17 111 1                @ /root/Bela/projects/final_project_v5_debugRec/envelope.cpp:111:1
	bx	lr
.Ltmp90:
.Lfunc_end7:
	.size	_ZN8Envelope7restartEv, .Lfunc_end7-_ZN8Envelope7restartEv
	.cfi_endproc
	.fnend

	.globl	_ZN8Envelope7processEv
	.p2align	2
	.type	_ZN8Envelope7processEv,%function
_ZN8Envelope7processEv:                 @ @_ZN8Envelope7processEv
.Lfunc_begin8:
	.loc	17 115 0                @ /root/Bela/projects/final_project_v5_debugRec/envelope.cpp:115:0
	.fnstart
	.cfi_startproc
@ BB#0:
	.save	{r4, r5, r11, lr}
	push	{r4, r5, r11, lr}
.Ltmp91:
	.cfi_def_cfa_offset 16
.Ltmp92:
	.cfi_offset lr, -4
.Ltmp93:
	.cfi_offset r11, -8
.Ltmp94:
	.cfi_offset r5, -12
.Ltmp95:
	.cfi_offset r4, -16
	.setfp	r11, sp, #8
	add	r11, sp, #8
.Ltmp96:
	.cfi_def_cfa r11, 8
	.vsave	{d8}
	vpush	{d8}
.Ltmp97:
	.cfi_offset d8, -24
	@DEBUG_VALUE: process:this <- %R0
.Ltmp98:
	@DEBUG_VALUE: process:out <- 0.000000e+00
	.loc	8 656 66 prologue_end   @ /usr/bin/../lib/gcc/arm-linux-gnueabihf/6.3.0/../../../../include/c++/6.3.0/bits/stl_vector.h:656:66
	ldr	r4, [r0]
	mov	r2, #0
	.loc	8 656 40 is_stmt 0      @ /usr/bin/../lib/gcc/arm-linux-gnueabihf/6.3.0/../../../../include/c++/6.3.0/bits/stl_vector.h:656:40
	ldr	r1, [r0, #4]
.Ltmp99:
	.loc	8 656 50                @ /usr/bin/../lib/gcc/arm-linux-gnueabihf/6.3.0/../../../../include/c++/6.3.0/bits/stl_vector.h:656:50
	sub	r1, r1, r4
.Ltmp100:
	.loc	17 119 5 is_stmt 1      @ /root/Bela/projects/final_project_v5_debugRec/envelope.cpp:119:5
	cmp	r2, r1, asr #2
	beq	.LBB8_5
.Ltmp101:
@ BB#1:
	@DEBUG_VALUE: process:this <- %R0
	.loc	8 656 50                @ /usr/bin/../lib/gcc/arm-linux-gnueabihf/6.3.0/../../../../include/c++/6.3.0/bits/stl_vector.h:656:50
	asr	r5, r1, #2
.Ltmp102:
	.loc	17 123 34               @ /root/Bela/projects/final_project_v5_debugRec/envelope.cpp:123:34
	vldr	s4, [r0, #28]
	.loc	17 123 18 is_stmt 0     @ /root/Bela/projects/final_project_v5_debugRec/envelope.cpp:123:18
	vmov	s0, r5
	.loc	17 123 47               @ /root/Bela/projects/final_project_v5_debugRec/envelope.cpp:123:47
	vldr	s2, [r0, #20]
	.loc	17 123 18               @ /root/Bela/projects/final_project_v5_debugRec/envelope.cpp:123:18
	vcvt.f32.u32	d0, d0
	.loc	17 123 15               @ /root/Bela/projects/final_project_v5_debugRec/envelope.cpp:123:15
	vldr	s6, [r0, #32]
	.loc	17 123 32               @ /root/Bela/projects/final_project_v5_debugRec/envelope.cpp:123:32
	vmul.f32	d16, d2, d0
	.loc	17 123 45               @ /root/Bela/projects/final_project_v5_debugRec/envelope.cpp:123:45
	vmul.f32	d16, d16, d1
	.loc	17 123 15               @ /root/Bela/projects/final_project_v5_debugRec/envelope.cpp:123:15
	vadd.f32	d8, d3, d16
	.loc	17 124 2 is_stmt 1 discriminator 1 @ /root/Bela/projects/final_project_v5_debugRec/envelope.cpp:124:2
	vcmpe.f32	s16, s0
	.loc	17 125 16               @ /root/Bela/projects/final_project_v5_debugRec/envelope.cpp:125:16
	vstr	s16, [r0, #32]
	.loc	17 124 2 discriminator 1 @ /root/Bela/projects/final_project_v5_debugRec/envelope.cpp:124:2
	vmrs	APSR_nzcv, fpscr
	blt	.LBB8_4
.Ltmp103:
.LBB8_2:                                @ %.lr.ph
                                        @ =>This Inner Loop Header: Depth=1
	.loc	17 125 16               @ /root/Bela/projects/final_project_v5_debugRec/envelope.cpp:125:16
	vsub.f32	d8, d8, d0
	.loc	17 124 2 discriminator 1 @ /root/Bela/projects/final_project_v5_debugRec/envelope.cpp:124:2
	vcmpe.f32	s16, s0
	vmrs	APSR_nzcv, fpscr
	bge	.LBB8_2
@ BB#3:                                 @ %._crit_edge
	.loc	17 125 16               @ /root/Bela/projects/final_project_v5_debugRec/envelope.cpp:125:16
	vstr	s16, [r0, #32]
.LBB8_4:
	.loc	17 130 19 discriminator 1 @ /root/Bela/projects/final_project_v5_debugRec/envelope.cpp:130:19
	vmov.f32	s0, s16
	bl	floorf
                                        @ kill: %S0<def> %S0<kill> %D0<def>
	.loc	17 140 24               @ /root/Bela/projects/final_project_v5_debugRec/envelope.cpp:140:24
	vmov.f32	d16, #1.000000e+00
	.loc	17 130 19               @ /root/Bela/projects/final_project_v5_debugRec/envelope.cpp:130:19
	vcvt.s32.f32	d0, d0
	.loc	17 139 39               @ /root/Bela/projects/final_project_v5_debugRec/envelope.cpp:139:39
	vcvt.f32.s32	d17, d0
.Ltmp104:
	@DEBUG_VALUE: process:indexAbove <- 0
	.loc	17 130 19               @ /root/Bela/projects/final_project_v5_debugRec/envelope.cpp:130:19
	vmov	r0, s0
.Ltmp105:
	@DEBUG_VALUE: process:indexBelow <- %R0
	@DEBUG_VALUE: operator[]:__n <- %R0
	.loc	17 139 37               @ /root/Bela/projects/final_project_v5_debugRec/envelope.cpp:139:37
	vsub.f32	d17, d8, d17
	.loc	17 140 24               @ /root/Bela/projects/final_project_v5_debugRec/envelope.cpp:140:24
	vsub.f32	d16, d16, d17
	.loc	17 131 30               @ /root/Bela/projects/final_project_v5_debugRec/envelope.cpp:131:30
	add	r1, r0, #1
.Ltmp106:
	@DEBUG_VALUE: process:indexAbove <- %R1
	.loc	17 132 5                @ /root/Bela/projects/final_project_v5_debugRec/envelope.cpp:132:5
	cmp	r1, r5
.Ltmp107:
	.loc	8 781 41                @ /usr/bin/../lib/gcc/arm-linux-gnueabihf/6.3.0/../../../../include/c++/6.3.0/bits/stl_vector.h:781:41
	add	r0, r4, r0, lsl #2
.Ltmp108:
	@DEBUG_VALUE: process:fractionAbove <- undef
	.loc	17 132 5                @ /root/Bela/projects/final_project_v5_debugRec/envelope.cpp:132:5
	movhs	r1, #0
.Ltmp109:
	@DEBUG_VALUE: operator[]:__n <- %R1
	.loc	17 143 24               @ /root/Bela/projects/final_project_v5_debugRec/envelope.cpp:143:24
	vldr	s0, [r0]
.Ltmp110:
	.loc	8 781 41                @ /usr/bin/../lib/gcc/arm-linux-gnueabihf/6.3.0/../../../../include/c++/6.3.0/bits/stl_vector.h:781:41
	add	r0, r4, r1, lsl #2
.Ltmp111:
	@DEBUG_VALUE: process:fractionBelow <- undef
	.loc	17 144 24               @ /root/Bela/projects/final_project_v5_debugRec/envelope.cpp:144:24
	vldr	s2, [r0]
	.loc	17 143 22               @ /root/Bela/projects/final_project_v5_debugRec/envelope.cpp:143:22
	vmul.f32	d16, d16, d0
	.loc	17 144 22               @ /root/Bela/projects/final_project_v5_debugRec/envelope.cpp:144:22
	vmul.f32	d17, d17, d1
	.loc	17 143 43               @ /root/Bela/projects/final_project_v5_debugRec/envelope.cpp:143:43
	vadd.f32	d0, d16, d17
.Ltmp112:
	@DEBUG_VALUE: process:out <- %S0
	b	.LBB8_6
.Ltmp113:
.LBB8_5:
	@DEBUG_VALUE: process:this <- %R0
	vmov.i32	d0, #0x0
.Ltmp114:
.LBB8_6:
	.loc	17 148 1 discriminator 1 @ /root/Bela/projects/final_project_v5_debugRec/envelope.cpp:148:1
                                        @ kill: %S0<def> %S0<kill> %D0<kill>
	vpop	{d8}
	pop	{r4, r5, r11, pc}
.Ltmp115:
.Lfunc_end8:
	.size	_ZN8Envelope7processEv, .Lfunc_end8-_ZN8Envelope7processEv
	.cfi_endproc
	.fnend

	.section	.text._ZNSt6vectorIfSaIfEE17_M_default_appendEj,"axG",%progbits,_ZNSt6vectorIfSaIfEE17_M_default_appendEj,comdat
	.weak	_ZNSt6vectorIfSaIfEE17_M_default_appendEj
	.p2align	2
	.type	_ZNSt6vectorIfSaIfEE17_M_default_appendEj,%function
_ZNSt6vectorIfSaIfEE17_M_default_appendEj: @ @_ZNSt6vectorIfSaIfEE17_M_default_appendEj
.Lfunc_begin9:
	.file	20 "/usr/bin/../lib/gcc/arm-linux-gnueabihf/6.3.0/../../../../include/c++/6.3.0/bits" "vector.tcc"
	.loc	20 542 0                @ /usr/bin/../lib/gcc/arm-linux-gnueabihf/6.3.0/../../../../include/c++/6.3.0/bits/vector.tcc:542:0
	.fnstart
	.cfi_startproc
@ BB#0:
	.save	{r4, r5, r6, r7, r8, r10, r11, lr}
	push	{r4, r5, r6, r7, r8, r10, r11, lr}
.Ltmp116:
	.cfi_def_cfa_offset 32
.Ltmp117:
	.cfi_offset lr, -4
.Ltmp118:
	.cfi_offset r11, -8
.Ltmp119:
	.cfi_offset r10, -12
.Ltmp120:
	.cfi_offset r8, -16
.Ltmp121:
	.cfi_offset r7, -20
.Ltmp122:
	.cfi_offset r6, -24
.Ltmp123:
	.cfi_offset r5, -28
.Ltmp124:
	.cfi_offset r4, -32
	.setfp	r11, sp, #24
	add	r11, sp, #24
.Ltmp125:
	.cfi_def_cfa r11, 8
	@DEBUG_VALUE: _M_default_append:this <- %R0
	@DEBUG_VALUE: _M_default_append:__n <- %R1
	mov	r5, r1
.Ltmp126:
	@DEBUG_VALUE: _M_default_append:__n <- %R5
	mov	r4, r0
.Ltmp127:
	@DEBUG_VALUE: _M_default_append:this <- %R4
	.loc	20 543 11 prologue_end  @ /usr/bin/../lib/gcc/arm-linux-gnueabihf/6.3.0/../../../../include/c++/6.3.0/bits/vector.tcc:543:11
	cmp	r5, #0
	beq	.LBB9_11
.Ltmp128:
@ BB#1:
	@DEBUG_VALUE: _M_default_append:this <- %R4
	@DEBUG_VALUE: _M_default_append:__n <- %R5
	@DEBUG_VALUE: __fill_n_a<float *, unsigned int, float>:__first <- %R7
	@DEBUG_VALUE: fill_n<float *, unsigned int, float>:__first <- %R7
	@DEBUG_VALUE: __uninit_default_n<float *, unsigned int>:__first <- %R7
	@DEBUG_VALUE: __uninitialized_default_n<float *, unsigned int>:__first <- %R7
	@DEBUG_VALUE: __uninitialized_default_n_a<float *, unsigned int, float>:__first <- %R7
	.loc	20 546 20               @ /usr/bin/../lib/gcc/arm-linux-gnueabihf/6.3.0/../../../../include/c++/6.3.0/bits/vector.tcc:546:20
	ldr	r7, [r4, #4]
.Ltmp129:
	.loc	20 545 32               @ /usr/bin/../lib/gcc/arm-linux-gnueabihf/6.3.0/../../../../include/c++/6.3.0/bits/vector.tcc:545:32
	ldr	r0, [r4, #8]
	.loc	20 546 4                @ /usr/bin/../lib/gcc/arm-linux-gnueabihf/6.3.0/../../../../include/c++/6.3.0/bits/vector.tcc:546:4
	sub	r0, r0, r7
	asr	r0, r0, #2
.Ltmp130:
	.loc	20 545 8                @ /usr/bin/../lib/gcc/arm-linux-gnueabihf/6.3.0/../../../../include/c++/6.3.0/bits/vector.tcc:545:8
	cmp	r0, r5
	bhs	.LBB9_12
.Ltmp131:
@ BB#2:
	@DEBUG_VALUE: _M_default_append:this <- %R4
	@DEBUG_VALUE: _M_default_append:__n <- %R5
	@DEBUG_VALUE: size:this <- %R4
	.loc	8 656 66                @ /usr/bin/../lib/gcc/arm-linux-gnueabihf/6.3.0/../../../../include/c++/6.3.0/bits/stl_vector.h:656:66
	ldr	r1, [r4]
.Ltmp132:
	.loc	8 1422 17               @ /usr/bin/../lib/gcc/arm-linux-gnueabihf/6.3.0/../../../../include/c++/6.3.0/bits/stl_vector.h:1422:17
	mvn	r8, #-1073741824
.Ltmp133:
	.loc	8 656 50                @ /usr/bin/../lib/gcc/arm-linux-gnueabihf/6.3.0/../../../../include/c++/6.3.0/bits/stl_vector.h:656:50
	sub	r0, r7, r1
.Ltmp134:
	.loc	8 1422 17               @ /usr/bin/../lib/gcc/arm-linux-gnueabihf/6.3.0/../../../../include/c++/6.3.0/bits/stl_vector.h:1422:17
	sub	r2, r8, r0, asr #2
.Ltmp135:
	@DEBUG_VALUE: _M_check_len:__n <- %R5
	.loc	8 1422 6 is_stmt 0      @ /usr/bin/../lib/gcc/arm-linux-gnueabihf/6.3.0/../../../../include/c++/6.3.0/bits/stl_vector.h:1422:6
	cmp	r2, r5
	blo	.LBB9_13
.Ltmp136:
@ BB#3:                                 @ %_ZNKSt6vectorIfSaIfEE12_M_check_lenEjPKc.exit
	@DEBUG_VALUE: _M_check_len:__n <- %R5
	@DEBUG_VALUE: size:this <- %R4
	@DEBUG_VALUE: _M_default_append:this <- %R4
	@DEBUG_VALUE: _M_default_append:__n <- %R5
	.loc	8 656 50 is_stmt 1      @ /usr/bin/../lib/gcc/arm-linux-gnueabihf/6.3.0/../../../../include/c++/6.3.0/bits/stl_vector.h:656:50
	asr	r0, r0, #2
.Ltmp137:
	.loc	8 1425 35               @ /usr/bin/../lib/gcc/arm-linux-gnueabihf/6.3.0/../../../../include/c++/6.3.0/bits/stl_vector.h:1425:35
	cmp	r0, r5
	mov	r2, r0
	mov	r6, #0
	movlo	r2, r5
	add	r0, r2, r0
	.loc	8 1426 25               @ /usr/bin/../lib/gcc/arm-linux-gnueabihf/6.3.0/../../../../include/c++/6.3.0/bits/stl_vector.h:1426:25
	cmp	r6, r0, lsr #30
	mov	r3, r0
	mvnne	r3, #-1073741824
	cmp	r0, r2
	movhs	r8, r3
.Ltmp138:
	@DEBUG_VALUE: _M_allocate:__n <- %R8
	@DEBUG_VALUE: __len <- %R8
	@DEBUG_VALUE: allocate:__n <- %R8
	@DEBUG_VALUE: allocate:__n <- %R8
	.loc	8 170 9                 @ /usr/bin/../lib/gcc/arm-linux-gnueabihf/6.3.0/../../../../include/c++/6.3.0/bits/stl_vector.h:170:9
	cmp	r8, #0
.Ltmp139:
	@DEBUG_VALUE: _M_check_len:__len <- %R0
	beq	.LBB9_6
.Ltmp140:
@ BB#4:
	@DEBUG_VALUE: _M_check_len:__len <- %R0
	@DEBUG_VALUE: allocate:__n <- %R8
	@DEBUG_VALUE: allocate:__n <- %R8
	@DEBUG_VALUE: __len <- %R8
	@DEBUG_VALUE: _M_allocate:__n <- %R8
	@DEBUG_VALUE: _M_check_len:__n <- %R5
	@DEBUG_VALUE: size:this <- %R4
	@DEBUG_VALUE: _M_default_append:this <- %R4
	@DEBUG_VALUE: _M_default_append:__n <- %R5
	.loc	4 101 6                 @ /usr/bin/../lib/gcc/arm-linux-gnueabihf/6.3.0/../../../../include/c++/6.3.0/ext/new_allocator.h:101:6
	cmp	r8, #1073741824
	bhs	.LBB9_14
.Ltmp141:
@ BB#5:                                 @ %_ZNSt16allocator_traitsISaIfEE8allocateERS0_j.exit.i
	@DEBUG_VALUE: _M_check_len:__len <- %R0
	@DEBUG_VALUE: allocate:__n <- %R8
	@DEBUG_VALUE: allocate:__n <- %R8
	@DEBUG_VALUE: __len <- %R8
	@DEBUG_VALUE: _M_allocate:__n <- %R8
	@DEBUG_VALUE: _M_check_len:__n <- %R5
	@DEBUG_VALUE: size:this <- %R4
	@DEBUG_VALUE: _M_default_append:this <- %R4
	@DEBUG_VALUE: _M_default_append:__n <- %R5
	.loc	4 104 46                @ /usr/bin/../lib/gcc/arm-linux-gnueabihf/6.3.0/../../../../include/c++/6.3.0/ext/new_allocator.h:104:46
	lsl	r0, r8, #2
.Ltmp142:
	.loc	4 104 27 is_stmt 0      @ /usr/bin/../lib/gcc/arm-linux-gnueabihf/6.3.0/../../../../include/c++/6.3.0/ext/new_allocator.h:104:27
	bl	_Znwj
.Ltmp143:
	.loc	20 563 22 is_stmt 1     @ /usr/bin/../lib/gcc/arm-linux-gnueabihf/6.3.0/../../../../include/c++/6.3.0/bits/vector.tcc:563:22
	ldm	r4, {r1, r7}
.Ltmp144:
	@DEBUG_VALUE: size:this <- %R4
	.loc	4 104 27                @ /usr/bin/../lib/gcc/arm-linux-gnueabihf/6.3.0/../../../../include/c++/6.3.0/ext/new_allocator.h:104:27
	mov	r6, r0
.Ltmp145:
.LBB9_6:                                @ %_ZNSt12_Vector_baseIfSaIfEE11_M_allocateEj.exit
	@DEBUG_VALUE: allocate:__n <- %R8
	@DEBUG_VALUE: allocate:__n <- %R8
	@DEBUG_VALUE: __len <- %R8
	@DEBUG_VALUE: _M_allocate:__n <- %R8
	@DEBUG_VALUE: _M_check_len:__n <- %R5
	@DEBUG_VALUE: size:this <- %R4
	@DEBUG_VALUE: _M_default_append:this <- %R4
	@DEBUG_VALUE: _M_default_append:__n <- %R5
	@DEBUG_VALUE: __uninitialized_move_if_noexcept_a<float *, float *, std::allocator<float> >:__first <- %R1
	@DEBUG_VALUE: uninitialized_copy<std::move_iterator<float *>, float *>:__assignable <- 1
	@DEBUG_VALUE: __copy_move_a<true, float *, float *>:__simple <- 1
	.file	21 "/usr/bin/../lib/gcc/arm-linux-gnueabihf/6.3.0/../../../../include/c++/6.3.0/bits" "stl_algobase.h"
	.loc	21 366 34               @ /usr/bin/../lib/gcc/arm-linux-gnueabihf/6.3.0/../../../../include/c++/6.3.0/bits/stl_algobase.h:366:34
	sub	r2, r7, r1
	mov	r0, #0
	asr	r7, r2, #2
.Ltmp146:
	@DEBUG_VALUE: __copy_m<float>:_Num <- %R7
	.loc	21 367 8                @ /usr/bin/../lib/gcc/arm-linux-gnueabihf/6.3.0/../../../../include/c++/6.3.0/bits/stl_algobase.h:367:8
	cmp	r0, r2, asr #2
	beq	.LBB9_8
.Ltmp147:
@ BB#7:
	@DEBUG_VALUE: __copy_m<float>:_Num <- %R7
	@DEBUG_VALUE: __uninitialized_move_if_noexcept_a<float *, float *, std::allocator<float> >:__first <- %R1
	@DEBUG_VALUE: allocate:__n <- %R8
	@DEBUG_VALUE: allocate:__n <- %R8
	@DEBUG_VALUE: __len <- %R8
	@DEBUG_VALUE: _M_allocate:__n <- %R8
	@DEBUG_VALUE: _M_check_len:__n <- %R5
	@DEBUG_VALUE: size:this <- %R4
	@DEBUG_VALUE: _M_default_append:this <- %R4
	@DEBUG_VALUE: _M_default_append:__n <- %R5
	.loc	21 368 6                @ /usr/bin/../lib/gcc/arm-linux-gnueabihf/6.3.0/../../../../include/c++/6.3.0/bits/stl_algobase.h:368:6
	mov	r0, r6
	bl	memmove
.Ltmp148:
	@DEBUG_VALUE: __uninitialized_move_if_noexcept_a<float *, float *, std::allocator<float> >:__result <- %R6
.LBB9_8:
	@DEBUG_VALUE: __copy_m<float>:_Num <- %R7
	@DEBUG_VALUE: allocate:__n <- %R8
	@DEBUG_VALUE: allocate:__n <- %R8
	@DEBUG_VALUE: __len <- %R8
	@DEBUG_VALUE: _M_allocate:__n <- %R8
	@DEBUG_VALUE: _M_check_len:__n <- %R5
	@DEBUG_VALUE: size:this <- %R4
	@DEBUG_VALUE: _M_default_append:this <- %R4
	@DEBUG_VALUE: _M_default_append:__n <- %R5
	.loc	21 369 20               @ /usr/bin/../lib/gcc/arm-linux-gnueabihf/6.3.0/../../../../include/c++/6.3.0/bits/stl_algobase.h:369:20
	add	r7, r6, r7, lsl #2
.Ltmp149:
	@DEBUG_VALUE: __niter <- %R5
	@DEBUG_VALUE: __fill_n_a<float *, unsigned int, float>:__first <- %R7
	@DEBUG_VALUE: fill_n<float *, unsigned int, float>:__first <- %R7
	@DEBUG_VALUE: __uninit_default_n<float *, unsigned int>:__first <- %R7
	@DEBUG_VALUE: __uninitialized_default_n<float *, unsigned int>:__assignable <- 1
	@DEBUG_VALUE: __uninitialized_default_n<float *, unsigned int>:__first <- %R7
	@DEBUG_VALUE: __uninitialized_default_n_a<float *, unsigned int, float>:__first <- %R7
	@DEBUG_VALUE: __new_finish <- %R7
	.loc	21 754 11               @ /usr/bin/../lib/gcc/arm-linux-gnueabihf/6.3.0/../../../../include/c++/6.3.0/bits/stl_algobase.h:754:11
	lsl	r2, r5, #2
	mov	r1, #0
	mov	r0, r7
	bl	memset
.Ltmp150:
	.loc	20 578 36               @ /usr/bin/../lib/gcc/arm-linux-gnueabihf/6.3.0/../../../../include/c++/6.3.0/bits/vector.tcc:578:36
	ldr	r0, [r4]
.Ltmp151:
	@DEBUG_VALUE: _M_deallocate:__p <- %R0
	@DEBUG_VALUE: deallocate:__p <- %R0
	@DEBUG_VALUE: deallocate:__p <- %R0
	.loc	21 754 11               @ /usr/bin/../lib/gcc/arm-linux-gnueabihf/6.3.0/../../../../include/c++/6.3.0/bits/stl_algobase.h:754:11
	add	r5, r7, r5, lsl #2
.Ltmp152:
	@DEBUG_VALUE: __new_finish <- %R5
	.loc	8 177 6                 @ /usr/bin/../lib/gcc/arm-linux-gnueabihf/6.3.0/../../../../include/c++/6.3.0/bits/stl_vector.h:177:6
	cmp	r0, #0
	beq	.LBB9_10
.Ltmp153:
@ BB#9:
	@DEBUG_VALUE: __new_finish <- %R5
	@DEBUG_VALUE: deallocate:__p <- %R0
	@DEBUG_VALUE: deallocate:__p <- %R0
	@DEBUG_VALUE: _M_deallocate:__p <- %R0
	@DEBUG_VALUE: __uninitialized_default_n_a<float *, unsigned int, float>:__first <- %R7
	@DEBUG_VALUE: __uninitialized_default_n<float *, unsigned int>:__first <- %R7
	@DEBUG_VALUE: __uninit_default_n<float *, unsigned int>:__first <- %R7
	@DEBUG_VALUE: fill_n<float *, unsigned int, float>:__first <- %R7
	@DEBUG_VALUE: __fill_n_a<float *, unsigned int, float>:__first <- %R7
	@DEBUG_VALUE: allocate:__n <- %R8
	@DEBUG_VALUE: allocate:__n <- %R8
	@DEBUG_VALUE: __len <- %R8
	@DEBUG_VALUE: _M_allocate:__n <- %R8
	@DEBUG_VALUE: size:this <- %R4
	@DEBUG_VALUE: _M_default_append:this <- %R4
	.loc	4 110 9                 @ /usr/bin/../lib/gcc/arm-linux-gnueabihf/6.3.0/../../../../include/c++/6.3.0/ext/new_allocator.h:110:9
	bl	_ZdlPv
.Ltmp154:
.LBB9_10:                               @ %_ZNSt12_Vector_baseIfSaIfEE13_M_deallocateEPfj.exit31
	@DEBUG_VALUE: __new_finish <- %R5
	@DEBUG_VALUE: __uninitialized_default_n_a<float *, unsigned int, float>:__first <- %R7
	@DEBUG_VALUE: __uninitialized_default_n<float *, unsigned int>:__first <- %R7
	@DEBUG_VALUE: __uninit_default_n<float *, unsigned int>:__first <- %R7
	@DEBUG_VALUE: fill_n<float *, unsigned int, float>:__first <- %R7
	@DEBUG_VALUE: __fill_n_a<float *, unsigned int, float>:__first <- %R7
	@DEBUG_VALUE: allocate:__n <- %R8
	@DEBUG_VALUE: allocate:__n <- %R8
	@DEBUG_VALUE: __len <- %R8
	@DEBUG_VALUE: _M_allocate:__n <- %R8
	@DEBUG_VALUE: size:this <- %R4
	@DEBUG_VALUE: _M_default_append:this <- %R4
	.loc	20 581 31               @ /usr/bin/../lib/gcc/arm-linux-gnueabihf/6.3.0/../../../../include/c++/6.3.0/bits/vector.tcc:581:31
	str	r6, [r4]
	.loc	20 583 54               @ /usr/bin/../lib/gcc/arm-linux-gnueabihf/6.3.0/../../../../include/c++/6.3.0/bits/vector.tcc:583:54
	add	r0, r6, r8, lsl #2
	.loc	20 582 32               @ /usr/bin/../lib/gcc/arm-linux-gnueabihf/6.3.0/../../../../include/c++/6.3.0/bits/vector.tcc:582:32
	str	r5, [r4, #4]
	.loc	20 583 40               @ /usr/bin/../lib/gcc/arm-linux-gnueabihf/6.3.0/../../../../include/c++/6.3.0/bits/vector.tcc:583:40
	str	r0, [r4, #8]
.Ltmp155:
.LBB9_11:
	@DEBUG_VALUE: _M_default_append:this <- %R4
	.loc	20 586 5 discriminator 2 @ /usr/bin/../lib/gcc/arm-linux-gnueabihf/6.3.0/../../../../include/c++/6.3.0/bits/vector.tcc:586:5
	pop	{r4, r5, r6, r7, r8, r10, r11, pc}
.Ltmp156:
.LBB9_12:                               @ %_ZSt27__uninitialized_default_n_aIPfjfET_S1_T0_RSaIT1_E.exit
	@DEBUG_VALUE: _M_default_append:this <- %R4
	@DEBUG_VALUE: _M_default_append:__n <- %R5
	@DEBUG_VALUE: __uninitialized_default_n<float *, unsigned int>:__assignable <- 1
	@DEBUG_VALUE: __niter <- %R5
	.loc	21 754 11               @ /usr/bin/../lib/gcc/arm-linux-gnueabihf/6.3.0/../../../../include/c++/6.3.0/bits/stl_algobase.h:754:11
	lsl	r2, r5, #2
	mov	r0, r7
	mov	r1, #0
	bl	memset
	add	r0, r7, r5, lsl #2
.Ltmp157:
	.loc	20 548 32               @ /usr/bin/../lib/gcc/arm-linux-gnueabihf/6.3.0/../../../../include/c++/6.3.0/bits/vector.tcc:548:32
	str	r0, [r4, #4]
.Ltmp158:
	.loc	20 586 5 discriminator 2 @ /usr/bin/../lib/gcc/arm-linux-gnueabihf/6.3.0/../../../../include/c++/6.3.0/bits/vector.tcc:586:5
	pop	{r4, r5, r6, r7, r8, r10, r11, pc}
.Ltmp159:
.LBB9_13:
	@DEBUG_VALUE: _M_check_len:__n <- %R5
	@DEBUG_VALUE: size:this <- %R4
	@DEBUG_VALUE: _M_default_append:this <- %R4
	@DEBUG_VALUE: _M_default_append:__n <- %R5
	.loc	8 1423 4                @ /usr/bin/../lib/gcc/arm-linux-gnueabihf/6.3.0/../../../../include/c++/6.3.0/bits/stl_vector.h:1423:4
	movw	r0, :lower16:.L.str
	movt	r0, :upper16:.L.str
.Ltmp160:
	@DEBUG_VALUE: _M_check_len:__s <- %R0
	mov	lr, pc
	b	_ZSt20__throw_length_errorPKc
.Ltmp161:
.LBB9_14:
	@DEBUG_VALUE: _M_check_len:__len <- %R0
	@DEBUG_VALUE: allocate:__n <- %R8
	@DEBUG_VALUE: allocate:__n <- %R8
	@DEBUG_VALUE: __len <- %R8
	@DEBUG_VALUE: _M_allocate:__n <- %R8
	@DEBUG_VALUE: _M_check_len:__n <- %R5
	@DEBUG_VALUE: size:this <- %R4
	@DEBUG_VALUE: _M_default_append:this <- %R4
	@DEBUG_VALUE: _M_default_append:__n <- %R5
	.loc	4 102 4                 @ /usr/bin/../lib/gcc/arm-linux-gnueabihf/6.3.0/../../../../include/c++/6.3.0/ext/new_allocator.h:102:4
	mov	lr, pc
	b	_ZSt17__throw_bad_allocv
.Ltmp162:
.Lfunc_end9:
	.size	_ZNSt6vectorIfSaIfEE17_M_default_appendEj, .Lfunc_end9-_ZNSt6vectorIfSaIfEE17_M_default_appendEj
	.cfi_endproc
	.file	22 "/usr/bin/../lib/gcc/arm-linux-gnueabihf/6.3.0/../../../../include/c++/6.3.0/bits" "stl_uninitialized.h"
	.file	23 "/usr/bin/../lib/gcc/arm-linux-gnueabihf/6.3.0/../../../../include/c++/6.3.0/ext" "type_traits.h"
	.fnend

	.type	.L.str,%object          @ @.str
	.section	.rodata.str1.1,"aMS",%progbits,1
.L.str:
	.asciz	"vector::_M_default_append"
	.size	.L.str, 26

	.section	".note.GNU-stack","",%progbits
	.eabi_attribute	30, 2	@ Tag_ABI_optimization_goals