	.text
	.syntax unified
	.eabi_attribute	67, "2.09"	@ Tag_conformance
	.cpu	cortex-a8
	.eabi_attribute	6, 10	@ Tag_CPU_arch
	.eabi_attribute	7, 65	@ Tag_CPU_arch_profile
	.eabi_attribute	8, 1	@ Tag_ARM_ISA_use
	.eabi_attribute	9, 2	@ Tag_THUMB_ISA_use
	.fpu	neon
	.eabi_attribute	17, 1	@ Tag_ABI_PCS_GOT_use
	.eabi_attribute	20, 2	@ Tag_ABI_FP_denormal
	.eabi_attribute	23, 1	@ Tag_ABI_FP_number_model
	.eabi_attribute	34, 1	@ Tag_CPU_unaligned_access
	.eabi_attribute	24, 1	@ Tag_ABI_align_needed
	.eabi_attribute	25, 1	@ Tag_ABI_align_preserved
	.eabi_attribute	28, 1	@ Tag_ABI_VFP_args
	.eabi_attribute	38, 1	@ Tag_ABI_FP_16bit_format
	.eabi_attribute	18, 4	@ Tag_ABI_PCS_wchar_t
	.eabi_attribute	26, 2	@ Tag_ABI_enum_size
	.eabi_attribute	14, 0	@ Tag_ABI_PCS_R9_use
	.eabi_attribute	68, 1	@ Tag_Virtualization_use
	.file	"/root/Bela/projects/final_project_v6/build/render.bc"
	.file	1 "/root/Bela/projects/final_project_v6" "render.cpp"
	.file	2 "/usr/bin/../lib/gcc/arm-linux-gnueabihf/6.3.0/../../../../include/arm-linux-gnueabihf/c++/6.3.0/bits" "c++config.h"
	.file	3 "/usr/bin/../lib/gcc/arm-linux-gnueabihf/6.3.0/../../../../include/c++/6.3.0/bits" "stringfwd.h"
	.file	4 "/usr/bin/../lib/gcc/arm-linux-gnueabihf/6.3.0/../../../../include/c++/6.3.0/bits" "alloc_traits.h"
	.file	5 "/usr/bin/../lib/gcc/arm-linux-gnueabihf/6.3.0/../../../../include/c++/6.3.0/ext" "new_allocator.h"
	.file	6 "/usr/bin/../lib/gcc/arm-linux-gnueabihf/6.3.0/../../../../include/arm-linux-gnueabihf/c++/6.3.0/bits" "c++allocator.h"
	.file	7 "/usr/bin/../lib/gcc/arm-linux-gnueabihf/6.3.0/../../../../include/c++/6.3.0/bits" "allocator.h"
	.file	8 "/usr/bin/../lib/gcc/arm-linux-gnueabihf/6.3.0/../../../../include/c++/6.3.0/ext" "alloc_traits.h"
	.file	9 "/usr/bin/../lib/gcc/arm-linux-gnueabihf/6.3.0/../../../../include/c++/6.3.0/bits" "stl_vector.h"
	.file	10 "/usr/bin/../lib/gcc/arm-linux-gnueabihf/6.3.0/../../../../include/c++/6.3.0/bits" "stl_iterator.h"
	.file	11 "/usr/bin/../lib/gcc/arm-linux-gnueabihf/6.3.0/../../../../include/c++/6.3.0/bits" "stl_iterator_base_types.h"
	.file	12 "/usr/bin/../lib/gcc/arm-linux-gnueabihf/6.3.0/../../../../include/c++/6.3.0" "type_traits"
	.file	13 "/root/Bela/projects/final_project_v6" "MonoFilePlayer.h"
	.file	14 "/root/Bela/projects/final_project_v6" "envelope.h"
	.file	15 "./libraries/Biquad" "Biquad.h"
	.file	16 "./libraries/Scope" "Scope.h"
	.file	17 "/usr/include/ne10" "NE10_types.h"
	.file	18 "/usr/bin/../lib/gcc/arm-linux-gnueabihf/6.3.0/../../../../include/c++/6.3.0/bits" "unique_ptr.h"
	.file	19 "/usr/bin/../lib/gcc/arm-linux-gnueabihf/6.3.0/../../../../include/c++/6.3.0" "tuple"
	.file	20 "/usr/bin/../lib/gcc/arm-linux-gnueabihf/6.3.0/../../../../include/c++/6.3.0/bits" "uses_allocator.h"
	.file	21 "/usr/bin/../lib/gcc/arm-linux-gnueabihf/6.3.0/../../../../include/c++/6.3.0/bits" "stl_tree.h"
	.file	22 "/usr/bin/../lib/gcc/arm-linux-gnueabihf/6.3.0/../../../../include/c++/6.3.0/bits" "stl_function.h"
	.file	23 "/usr/bin/../lib/gcc/arm-linux-gnueabihf/6.3.0/../../../../include/c++/6.3.0/bits" "stl_pair.h"
	.file	24 "/usr/bin/../lib/gcc/arm-linux-gnueabihf/6.3.0/../../../../include/c++/6.3.0/bits" "stl_map.h"
	.file	25 "/root/Bela/projects/final_project_v6" "wavetable.h"
	.file	26 "/root/Bela/projects/final_project_v6" "voice.h"
	.file	27 "/usr/bin/../lib/gcc/arm-linux-gnueabihf/6.3.0/../../../../include/c++/6.3.0" "array"
	.file	28 "/root/Bela/projects/final_project_v6" "chord.h"
	.file	29 "/usr/bin/../lib/gcc/arm-linux-gnueabihf/6.3.0/../../../../include/c++/6.3.0/ext" "concurrence.h"
	.file	30 "./include" "Bela.h"
	.file	31 "./include" "GPIOcontrol.h"
	.file	32 "/usr/bin/../lib/gcc/arm-linux-gnueabihf/6.3.0/../../../../include/c++/6.3.0/bits" "basic_string.h"
	.file	33 "/usr/bin/../lib/gcc/arm-linux-gnueabihf/6.3.0/../../../../include/c++/6.3.0/bits" "cpp_type_traits.h"
	.file	34 "/usr/bin/../lib/gcc/arm-linux-gnueabihf/6.3.0/../../../../include/c++/6.3.0/bits" "char_traits.h"
	.file	35 "/usr/bin/../lib/gcc/arm-linux-gnueabihf/6.3.0/../../../../include/c++/6.3.0/debug" "debug.h"
	.file	36 "/usr/bin/../lib/gcc/arm-linux-gnueabihf/6.3.0/../../../../include/c++/6.3.0/bits" "exception_ptr.h"
	.file	37 "/usr/include" "wchar.h"
	.file	38 "/usr/lib/llvm-3.9/bin/../lib/clang/3.9.1/include" "stddef.h"
	.file	39 "/usr/include" "libio.h"
	.file	40 "/usr/include/arm-linux-gnueabihf/bits" "types.h"
	.file	41 "/usr/include" "stdio.h"
	.file	42 "/usr/lib/llvm-3.9/bin/../lib/clang/3.9.1/include" "stdarg.h"
	.file	43 "/usr/include" "stdint.h"
	.file	44 "/usr/include" "locale.h"
	.file	45 "/usr/include" "ctype.h"
	.file	46 "/usr/include" "stdlib.h"
	.file	47 "/usr/include/arm-linux-gnueabihf/bits" "stdlib-float.h"
	.file	48 "/usr/include/arm-linux-gnueabihf/bits" "stdlib-bsearch.h"
	.file	49 "/usr/bin/../lib/gcc/arm-linux-gnueabihf/6.3.0/../../../../include/c++/6.3.0" "cstdlib"
	.file	50 "/usr/include" "_G_config.h"
	.file	51 "/usr/include/arm-linux-gnueabihf/bits" "stdio.h"
	.file	52 "/usr/include/arm-linux-gnueabihf/bits" "math-finite.h"
	.file	53 "/usr/include/arm-linux-gnueabihf/bits" "mathcalls.h"
	.file	54 "/usr/include/arm-linux-gnueabihf/bits" "mathdef.h"
	.section	.text._ZN14MonoFilePlayerD2Ev,"axG",%progbits,_ZN14MonoFilePlayerD2Ev,comdat
	.weak	_ZN14MonoFilePlayerD2Ev
	.p2align	2
	.type	_ZN14MonoFilePlayerD2Ev,%function
_ZN14MonoFilePlayerD2Ev:                @ @_ZN14MonoFilePlayerD2Ev
.Lfunc_begin0:
	.loc	13 42 0                 @ /root/Bela/projects/final_project_v6/MonoFilePlayer.h:42:0
	.fnstart
	.cfi_startproc
@ BB#0:
	.save	{r4, r10, r11, lr}
	push	{r4, r10, r11, lr}
.Ltmp0:
	.cfi_def_cfa_offset 16
.Ltmp1:
	.cfi_offset lr, -4
.Ltmp2:
	.cfi_offset r11, -8
.Ltmp3:
	.cfi_offset r10, -12
.Ltmp4:
	.cfi_offset r4, -16
	.setfp	r11, sp, #8
	add	r11, sp, #8
.Ltmp5:
	.cfi_def_cfa r11, 8
	@DEBUG_VALUE: ~MonoFilePlayer:this <- %R0
	mov	r4, r0
.Ltmp6:
	@DEBUG_VALUE: ~MonoFilePlayer:this <- %R4
	.loc	9 160 37 prologue_end   @ /usr/bin/../lib/gcc/arm-linux-gnueabihf/6.3.0/../../../../include/c++/6.3.0/bits/stl_vector.h:160:37
	ldr	r0, [r4]
.Ltmp7:
	@DEBUG_VALUE: _M_deallocate:__p <- %R0
	@DEBUG_VALUE: deallocate:__p <- %R0
	@DEBUG_VALUE: deallocate:__p <- %R0
	.loc	9 177 6                 @ /usr/bin/../lib/gcc/arm-linux-gnueabihf/6.3.0/../../../../include/c++/6.3.0/bits/stl_vector.h:177:6
	cmp	r0, #0
	beq	.LBB0_2
.Ltmp8:
@ BB#1:
	@DEBUG_VALUE: deallocate:__p <- %R0
	@DEBUG_VALUE: deallocate:__p <- %R0
	@DEBUG_VALUE: _M_deallocate:__p <- %R0
	@DEBUG_VALUE: ~MonoFilePlayer:this <- %R4
	.loc	5 110 9                 @ /usr/bin/../lib/gcc/arm-linux-gnueabihf/6.3.0/../../../../include/c++/6.3.0/ext/new_allocator.h:110:9
	bl	_ZdlPv
.Ltmp9:
.LBB0_2:                                @ %_ZNSt6vectorIfSaIfEED2Ev.exit
	@DEBUG_VALUE: ~MonoFilePlayer:this <- %R4
	.loc	13 42 21                @ /root/Bela/projects/final_project_v6/MonoFilePlayer.h:42:21
	mov	r0, r4
	pop	{r4, r10, r11, pc}
.Ltmp10:
.Lfunc_end0:
	.size	_ZN14MonoFilePlayerD2Ev, .Lfunc_end0-_ZN14MonoFilePlayerD2Ev
	.cfi_endproc
	.fnend

	.section	.text._ZN8EnvelopeD2Ev,"axG",%progbits,_ZN8EnvelopeD2Ev,comdat
	.weak	_ZN8EnvelopeD2Ev
	.p2align	2
	.type	_ZN8EnvelopeD2Ev,%function
_ZN8EnvelopeD2Ev:                       @ @_ZN8EnvelopeD2Ev
.Lfunc_begin1:
	.loc	14 36 0                 @ /root/Bela/projects/final_project_v6/envelope.h:36:0
	.fnstart
	.cfi_startproc
@ BB#0:
	.save	{r4, r10, r11, lr}
	push	{r4, r10, r11, lr}
.Ltmp11:
	.cfi_def_cfa_offset 16
.Ltmp12:
	.cfi_offset lr, -4
.Ltmp13:
	.cfi_offset r11, -8
.Ltmp14:
	.cfi_offset r10, -12
.Ltmp15:
	.cfi_offset r4, -16
	.setfp	r11, sp, #8
	add	r11, sp, #8
.Ltmp16:
	.cfi_def_cfa r11, 8
	@DEBUG_VALUE: ~Envelope:this <- %R0
	mov	r4, r0
.Ltmp17:
	@DEBUG_VALUE: ~Envelope:this <- %R4
	.loc	9 160 37 prologue_end   @ /usr/bin/../lib/gcc/arm-linux-gnueabihf/6.3.0/../../../../include/c++/6.3.0/bits/stl_vector.h:160:37
	ldr	r0, [r4]
.Ltmp18:
	@DEBUG_VALUE: _M_deallocate:__p <- %R0
	@DEBUG_VALUE: deallocate:__p <- %R0
	@DEBUG_VALUE: deallocate:__p <- %R0
	.loc	9 177 6                 @ /usr/bin/../lib/gcc/arm-linux-gnueabihf/6.3.0/../../../../include/c++/6.3.0/bits/stl_vector.h:177:6
	cmp	r0, #0
	beq	.LBB1_2
.Ltmp19:
@ BB#1:
	@DEBUG_VALUE: deallocate:__p <- %R0
	@DEBUG_VALUE: deallocate:__p <- %R0
	@DEBUG_VALUE: _M_deallocate:__p <- %R0
	@DEBUG_VALUE: ~Envelope:this <- %R4
	.loc	5 110 9                 @ /usr/bin/../lib/gcc/arm-linux-gnueabihf/6.3.0/../../../../include/c++/6.3.0/ext/new_allocator.h:110:9
	bl	_ZdlPv
.Ltmp20:
.LBB1_2:                                @ %_ZNSt6vectorIfSaIfEED2Ev.exit
	@DEBUG_VALUE: ~Envelope:this <- %R4
	.loc	14 36 15                @ /root/Bela/projects/final_project_v6/envelope.h:36:15
	mov	r0, r4
	pop	{r4, r10, r11, pc}
.Ltmp21:
.Lfunc_end1:
	.size	_ZN8EnvelopeD2Ev, .Lfunc_end1-_ZN8EnvelopeD2Ev
	.cfi_endproc
	.fnend

	.section	.text._ZN5VoiceD2Ev,"axG",%progbits,_ZN5VoiceD2Ev,comdat
	.weak	_ZN5VoiceD2Ev
	.p2align	2
	.type	_ZN5VoiceD2Ev,%function
_ZN5VoiceD2Ev:                          @ @_ZN5VoiceD2Ev
.Lfunc_begin2:
	.loc	26 38 0                 @ /root/Bela/projects/final_project_v6/voice.h:38:0
	.fnstart
	.cfi_startproc
@ BB#0:
	.save	{r4, r5, r6, r10, r11, lr}
	push	{r4, r5, r6, r10, r11, lr}
.Ltmp22:
	.cfi_def_cfa_offset 24
.Ltmp23:
	.cfi_offset lr, -4
.Ltmp24:
	.cfi_offset r11, -8
.Ltmp25:
	.cfi_offset r10, -12
.Ltmp26:
	.cfi_offset r6, -16
.Ltmp27:
	.cfi_offset r5, -20
.Ltmp28:
	.cfi_offset r4, -24
	.setfp	r11, sp, #16
	add	r11, sp, #16
.Ltmp29:
	.cfi_def_cfa r11, 8
	@DEBUG_VALUE: ~Voice:this <- %R0
	mov	r4, r0
.Ltmp30:
	@DEBUG_VALUE: ~Voice:this <- %R4
	.loc	9 160 37 prologue_end   @ /usr/bin/../lib/gcc/arm-linux-gnueabihf/6.3.0/../../../../include/c++/6.3.0/bits/stl_vector.h:160:37
	ldr	r0, [r4, #48]
.Ltmp31:
	@DEBUG_VALUE: _M_deallocate:__p <- %R0
	@DEBUG_VALUE: deallocate:__p <- %R0
	@DEBUG_VALUE: deallocate:__p <- %R0
	.loc	9 177 6                 @ /usr/bin/../lib/gcc/arm-linux-gnueabihf/6.3.0/../../../../include/c++/6.3.0/bits/stl_vector.h:177:6
	cmp	r0, #0
	beq	.LBB2_2
.Ltmp32:
@ BB#1:
	@DEBUG_VALUE: deallocate:__p <- %R0
	@DEBUG_VALUE: deallocate:__p <- %R0
	@DEBUG_VALUE: _M_deallocate:__p <- %R0
	@DEBUG_VALUE: ~Voice:this <- %R4
	.loc	5 110 9                 @ /usr/bin/../lib/gcc/arm-linux-gnueabihf/6.3.0/../../../../include/c++/6.3.0/ext/new_allocator.h:110:9
	bl	_ZdlPv
.Ltmp33:
.LBB2_2:                                @ %_ZNSt6vectorIfSaIfEED2Ev.exit
	@DEBUG_VALUE: ~Voice:this <- %R4
	.loc	9 160 37                @ /usr/bin/../lib/gcc/arm-linux-gnueabihf/6.3.0/../../../../include/c++/6.3.0/bits/stl_vector.h:160:37
	ldr	r0, [r4, #36]
.Ltmp34:
	@DEBUG_VALUE: _M_deallocate:__p <- %R0
	@DEBUG_VALUE: deallocate:__p <- %R0
	@DEBUG_VALUE: deallocate:__p <- %R0
	.loc	9 177 6                 @ /usr/bin/../lib/gcc/arm-linux-gnueabihf/6.3.0/../../../../include/c++/6.3.0/bits/stl_vector.h:177:6
	cmp	r0, #0
	beq	.LBB2_4
.Ltmp35:
@ BB#3:
	@DEBUG_VALUE: deallocate:__p <- %R0
	@DEBUG_VALUE: deallocate:__p <- %R0
	@DEBUG_VALUE: _M_deallocate:__p <- %R0
	@DEBUG_VALUE: ~Voice:this <- %R4
	.loc	5 110 9                 @ /usr/bin/../lib/gcc/arm-linux-gnueabihf/6.3.0/../../../../include/c++/6.3.0/ext/new_allocator.h:110:9
	bl	_ZdlPv
.Ltmp36:
.LBB2_4:                                @ %_ZNSt6vectorIfSaIfEED2Ev.exit1
	@DEBUG_VALUE: ~Voice:this <- %R4
	.loc	9 160 37                @ /usr/bin/../lib/gcc/arm-linux-gnueabihf/6.3.0/../../../../include/c++/6.3.0/bits/stl_vector.h:160:37
	ldr	r0, [r4, #16]
.Ltmp37:
	@DEBUG_VALUE: _M_deallocate:__p <- %R0
	@DEBUG_VALUE: deallocate:__p <- %R0
	@DEBUG_VALUE: deallocate:__p <- %R0
	.loc	9 177 6                 @ /usr/bin/../lib/gcc/arm-linux-gnueabihf/6.3.0/../../../../include/c++/6.3.0/bits/stl_vector.h:177:6
	cmp	r0, #0
	beq	.LBB2_6
.Ltmp38:
@ BB#5:
	@DEBUG_VALUE: deallocate:__p <- %R0
	@DEBUG_VALUE: deallocate:__p <- %R0
	@DEBUG_VALUE: _M_deallocate:__p <- %R0
	@DEBUG_VALUE: ~Voice:this <- %R4
	.loc	5 110 9                 @ /usr/bin/../lib/gcc/arm-linux-gnueabihf/6.3.0/../../../../include/c++/6.3.0/ext/new_allocator.h:110:9
	bl	_ZdlPv
.Ltmp39:
.LBB2_6:                                @ %_ZNSt6vectorIfSaIfEED2Ev.exit2
	@DEBUG_VALUE: ~Voice:this <- %R4
	@DEBUG_VALUE: __destroy<Wavetable *>:__first <- %R5
	@DEBUG_VALUE: _Destroy<Wavetable *>:__first <- %R5
	@DEBUG_VALUE: _Destroy<Wavetable *, Wavetable>:__first <- %R5
	@DEBUG_VALUE: _Destroy<Wavetable *, Wavetable>:__last <- %R6
	@DEBUG_VALUE: _Destroy<Wavetable *>:__last <- %R6
	@DEBUG_VALUE: __destroy<Wavetable *>:__last <- %R6
	.loc	9 426 37                @ /usr/bin/../lib/gcc/arm-linux-gnueabihf/6.3.0/../../../../include/c++/6.3.0/bits/stl_vector.h:426:37
	ldm	r4, {r5, r6}
.Ltmp40:
	.file	55 "/usr/bin/../lib/gcc/arm-linux-gnueabihf/6.3.0/../../../../include/c++/6.3.0/bits" "stl_construct.h"
	.loc	55 102 4 discriminator 1 @ /usr/bin/../lib/gcc/arm-linux-gnueabihf/6.3.0/../../../../include/c++/6.3.0/bits/stl_construct.h:102:4
	cmp	r5, r6
	beq	.LBB2_11
.Ltmp41:
.LBB2_7:                                @ %.lr.ph.i.i.i.i
                                        @ =>This Inner Loop Header: Depth=1
	@DEBUG_VALUE: __addressof<Wavetable>:__r <- %R5
	.loc	9 160 37                @ /usr/bin/../lib/gcc/arm-linux-gnueabihf/6.3.0/../../../../include/c++/6.3.0/bits/stl_vector.h:160:37
	ldr	r0, [r5]
.Ltmp42:
	@DEBUG_VALUE: _M_deallocate:__p <- %R0
	@DEBUG_VALUE: deallocate:__p <- %R0
	@DEBUG_VALUE: deallocate:__p <- %R0
	.loc	9 177 6                 @ /usr/bin/../lib/gcc/arm-linux-gnueabihf/6.3.0/../../../../include/c++/6.3.0/bits/stl_vector.h:177:6
	cmp	r0, #0
	beq	.LBB2_9
.Ltmp43:
@ BB#8:                                 @   in Loop: Header=BB2_7 Depth=1
	@DEBUG_VALUE: deallocate:__p <- %R0
	@DEBUG_VALUE: deallocate:__p <- %R0
	@DEBUG_VALUE: _M_deallocate:__p <- %R0
	@DEBUG_VALUE: __addressof<Wavetable>:__r <- %R5
	.loc	5 110 9                 @ /usr/bin/../lib/gcc/arm-linux-gnueabihf/6.3.0/../../../../include/c++/6.3.0/ext/new_allocator.h:110:9
	bl	_ZdlPv
.Ltmp44:
.LBB2_9:                                @ %_ZSt8_DestroyI9WavetableEvPT_.exit.i.i.i.i
                                        @   in Loop: Header=BB2_7 Depth=1
	@DEBUG_VALUE: __addressof<Wavetable>:__r <- %R5
	.loc	55 102 30 discriminator 2 @ /usr/bin/../lib/gcc/arm-linux-gnueabihf/6.3.0/../../../../include/c++/6.3.0/bits/stl_construct.h:102:30
	add	r5, r5, #28
.Ltmp45:
	@DEBUG_VALUE: __destroy<Wavetable *>:__first <- %R5
	.loc	55 102 4 is_stmt 0 discriminator 1 @ /usr/bin/../lib/gcc/arm-linux-gnueabihf/6.3.0/../../../../include/c++/6.3.0/bits/stl_construct.h:102:4
	cmp	r6, r5
	bne	.LBB2_7
.Ltmp46:
@ BB#10:                                @ %_ZSt8_DestroyIP9WavetableS0_EvT_S2_RSaIT0_E.exit.loopexit.i
	@DEBUG_VALUE: __destroy<Wavetable *>:__first <- %R5
	.loc	9 160 37 is_stmt 1      @ /usr/bin/../lib/gcc/arm-linux-gnueabihf/6.3.0/../../../../include/c++/6.3.0/bits/stl_vector.h:160:37
	ldr	r5, [r4]
.Ltmp47:
.LBB2_11:                               @ %_ZSt8_DestroyIP9WavetableS0_EvT_S2_RSaIT0_E.exit.i
	@DEBUG_VALUE: _M_deallocate:__p <- %R5
	.loc	9 177 6                 @ /usr/bin/../lib/gcc/arm-linux-gnueabihf/6.3.0/../../../../include/c++/6.3.0/bits/stl_vector.h:177:6
	cmp	r5, #0
	beq	.LBB2_13
.Ltmp48:
@ BB#12:
	@DEBUG_VALUE: _M_deallocate:__p <- %R5
	.loc	5 110 9                 @ /usr/bin/../lib/gcc/arm-linux-gnueabihf/6.3.0/../../../../include/c++/6.3.0/ext/new_allocator.h:110:9
	mov	r0, r5
	bl	_ZdlPv
.Ltmp49:
.LBB2_13:                               @ %_ZNSt6vectorI9WavetableSaIS0_EED2Ev.exit
	@DEBUG_VALUE: _M_deallocate:__p <- %R5
	.loc	26 38 12                @ /root/Bela/projects/final_project_v6/voice.h:38:12
	mov	r0, r4
	pop	{r4, r5, r6, r10, r11, pc}
.Ltmp50:
.Lfunc_end2:
	.size	_ZN5VoiceD2Ev, .Lfunc_end2-_ZN5VoiceD2Ev
	.cfi_endproc
	.fnend

	.section	.text.startup,"ax",%progbits
	.p2align	2
	.type	__cxx_global_array_dtor,%function
__cxx_global_array_dtor:                @ @__cxx_global_array_dtor
.Lfunc_begin3:
	.file	56 "/root/Bela/projects/final_project_v6/build" "render.cpp"
	.loc	56 147 0                @ /root/Bela/projects/final_project_v6/build/render.cpp:147:0
	.fnstart
	.cfi_startproc
@ BB#0:
	.save	{r4, r10, r11, lr}
	push	{r4, r10, r11, lr}
.Ltmp51:
	.cfi_def_cfa_offset 16
.Ltmp52:
	.cfi_offset lr, -4
.Ltmp53:
	.cfi_offset r11, -8
.Ltmp54:
	.cfi_offset r10, -12
.Ltmp55:
	.cfi_offset r4, -16
	.setfp	r11, sp, #8
	add	r11, sp, #8
.Ltmp56:
	.cfi_def_cfa r11, 8
	@DEBUG_VALUE: __cxx_global_array_dtor: <- %R0
.Ltmp57:
	.loc	56 147 1 prologue_end discriminator 1 @ /root/Bela/projects/final_project_v6/build/render.cpp:147:1
	movw	r4, :lower16:gVoices
	movt	r4, :upper16:gVoices
	add	r0, r4, #228
	bl	_ZN5VoiceD2Ev
	add	r0, r4, #152
	bl	_ZN5VoiceD2Ev
	add	r0, r4, #76
	bl	_ZN5VoiceD2Ev
	mov	r0, r4
	pop	{r4, r10, r11, lr}
	b	_ZN5VoiceD2Ev
.Ltmp58:
.Lfunc_end3:
	.size	__cxx_global_array_dtor, .Lfunc_end3-__cxx_global_array_dtor
	.cfi_endproc
	.fnend

	.section	.text._ZNSt6vectorISt5arrayIiLj4EESaIS1_EED2Ev,"axG",%progbits,_ZNSt6vectorISt5arrayIiLj4EESaIS1_EED2Ev,comdat
	.weak	_ZNSt6vectorISt5arrayIiLj4EESaIS1_EED2Ev
	.p2align	2
	.type	_ZNSt6vectorISt5arrayIiLj4EESaIS1_EED2Ev,%function
_ZNSt6vectorISt5arrayIiLj4EESaIS1_EED2Ev: @ @_ZNSt6vectorISt5arrayIiLj4EESaIS1_EED2Ev
.Lfunc_begin4:
	.loc	9 426 0                 @ /usr/bin/../lib/gcc/arm-linux-gnueabihf/6.3.0/../../../../include/c++/6.3.0/bits/stl_vector.h:426:0
	.fnstart
	.cfi_startproc
@ BB#0:
	.save	{r4, r10, r11, lr}
	push	{r4, r10, r11, lr}
.Ltmp59:
	.cfi_def_cfa_offset 16
.Ltmp60:
	.cfi_offset lr, -4
.Ltmp61:
	.cfi_offset r11, -8
.Ltmp62:
	.cfi_offset r10, -12
.Ltmp63:
	.cfi_offset r4, -16
	.setfp	r11, sp, #8
	add	r11, sp, #8
.Ltmp64:
	.cfi_def_cfa r11, 8
	@DEBUG_VALUE: ~vector:this <- %R0
	mov	r4, r0
.Ltmp65:
	@DEBUG_VALUE: ~vector:this <- %R4
	.loc	9 160 37 prologue_end   @ /usr/bin/../lib/gcc/arm-linux-gnueabihf/6.3.0/../../../../include/c++/6.3.0/bits/stl_vector.h:160:37
	ldr	r0, [r4]
.Ltmp66:
	@DEBUG_VALUE: _M_deallocate:__p <- %R0
	@DEBUG_VALUE: deallocate:__p <- %R0
	@DEBUG_VALUE: deallocate:__p <- %R0
	.loc	9 177 6                 @ /usr/bin/../lib/gcc/arm-linux-gnueabihf/6.3.0/../../../../include/c++/6.3.0/bits/stl_vector.h:177:6
	cmp	r0, #0
	beq	.LBB4_2
.Ltmp67:
@ BB#1:
	@DEBUG_VALUE: deallocate:__p <- %R0
	@DEBUG_VALUE: deallocate:__p <- %R0
	@DEBUG_VALUE: _M_deallocate:__p <- %R0
	@DEBUG_VALUE: ~vector:this <- %R4
	.loc	5 110 9                 @ /usr/bin/../lib/gcc/arm-linux-gnueabihf/6.3.0/../../../../include/c++/6.3.0/ext/new_allocator.h:110:9
	bl	_ZdlPv
.Ltmp68:
.LBB4_2:                                @ %_ZNSt12_Vector_baseISt5arrayIiLj4EESaIS1_EED2Ev.exit
	@DEBUG_VALUE: ~vector:this <- %R4
	.loc	9 427 33 discriminator 1 @ /usr/bin/../lib/gcc/arm-linux-gnueabihf/6.3.0/../../../../include/c++/6.3.0/bits/stl_vector.h:427:33
	mov	r0, r4
	pop	{r4, r10, r11, pc}
.Ltmp69:
.Lfunc_end4:
	.size	_ZNSt6vectorISt5arrayIiLj4EESaIS1_EED2Ev, .Lfunc_end4-_ZNSt6vectorISt5arrayIiLj4EESaIS1_EED2Ev
	.cfi_endproc
	.fnend

	.section	.text.startup,"ax",%progbits
	.p2align	2
	.type	__cxx_global_array_dtor.11,%function
__cxx_global_array_dtor.11:             @ @__cxx_global_array_dtor.11
.Lfunc_begin5:
	.loc	56 170 0                @ /root/Bela/projects/final_project_v6/build/render.cpp:170:0
	.fnstart
	.cfi_startproc
@ BB#0:
	@DEBUG_VALUE: __cxx_global_array_dtor.11: <- %R0
	.loc	1 170 1 prologue_end    @ /root/Bela/projects/final_project_v6/render.cpp:170:1
	bx	lr
.Ltmp70:
.Lfunc_end5:
	.size	__cxx_global_array_dtor.11, .Lfunc_end5-__cxx_global_array_dtor.11
	.cfi_endproc
	.fnend

	.section	.text._ZNSt6vectorIfSaIfEED2Ev,"axG",%progbits,_ZNSt6vectorIfSaIfEED2Ev,comdat
	.weak	_ZNSt6vectorIfSaIfEED2Ev
	.p2align	2
	.type	_ZNSt6vectorIfSaIfEED2Ev,%function
_ZNSt6vectorIfSaIfEED2Ev:               @ @_ZNSt6vectorIfSaIfEED2Ev
.Lfunc_begin6:
	.loc	9 426 0                 @ /usr/bin/../lib/gcc/arm-linux-gnueabihf/6.3.0/../../../../include/c++/6.3.0/bits/stl_vector.h:426:0
	.fnstart
	.cfi_startproc
@ BB#0:
	.save	{r4, r10, r11, lr}
	push	{r4, r10, r11, lr}
.Ltmp71:
	.cfi_def_cfa_offset 16
.Ltmp72:
	.cfi_offset lr, -4
.Ltmp73:
	.cfi_offset r11, -8
.Ltmp74:
	.cfi_offset r10, -12
.Ltmp75:
	.cfi_offset r4, -16
	.setfp	r11, sp, #8
	add	r11, sp, #8
.Ltmp76:
	.cfi_def_cfa r11, 8
	@DEBUG_VALUE: ~vector:this <- %R0
	mov	r4, r0
.Ltmp77:
	@DEBUG_VALUE: ~vector:this <- %R4
	.loc	9 160 37 prologue_end   @ /usr/bin/../lib/gcc/arm-linux-gnueabihf/6.3.0/../../../../include/c++/6.3.0/bits/stl_vector.h:160:37
	ldr	r0, [r4]
.Ltmp78:
	@DEBUG_VALUE: _M_deallocate:__p <- %R0
	@DEBUG_VALUE: deallocate:__p <- %R0
	@DEBUG_VALUE: deallocate:__p <- %R0
	.loc	9 177 6                 @ /usr/bin/../lib/gcc/arm-linux-gnueabihf/6.3.0/../../../../include/c++/6.3.0/bits/stl_vector.h:177:6
	cmp	r0, #0
	beq	.LBB6_2
.Ltmp79:
@ BB#1:
	@DEBUG_VALUE: deallocate:__p <- %R0
	@DEBUG_VALUE: deallocate:__p <- %R0
	@DEBUG_VALUE: _M_deallocate:__p <- %R0
	@DEBUG_VALUE: ~vector:this <- %R4
	.loc	5 110 9                 @ /usr/bin/../lib/gcc/arm-linux-gnueabihf/6.3.0/../../../../include/c++/6.3.0/ext/new_allocator.h:110:9
	bl	_ZdlPv
.Ltmp80:
.LBB6_2:                                @ %_ZNSt12_Vector_baseIfSaIfEED2Ev.exit
	@DEBUG_VALUE: ~vector:this <- %R4
	.loc	9 427 33 discriminator 1 @ /usr/bin/../lib/gcc/arm-linux-gnueabihf/6.3.0/../../../../include/c++/6.3.0/bits/stl_vector.h:427:33
	mov	r0, r4
	pop	{r4, r10, r11, pc}
.Ltmp81:
.Lfunc_end6:
	.size	_ZNSt6vectorIfSaIfEED2Ev, .Lfunc_end6-_ZNSt6vectorIfSaIfEED2Ev
	.cfi_endproc
	.fnend

	.section	.text._ZN11synthTimbreD2Ev,"axG",%progbits,_ZN11synthTimbreD2Ev,comdat
	.weak	_ZN11synthTimbreD2Ev
	.p2align	2
	.type	_ZN11synthTimbreD2Ev,%function
_ZN11synthTimbreD2Ev:                   @ @_ZN11synthTimbreD2Ev
.Lfunc_begin7:
	.loc	1 175 0                 @ /root/Bela/projects/final_project_v6/render.cpp:175:0
	.fnstart
	.cfi_startproc
@ BB#0:
	.save	{r4, r10, r11, lr}
	push	{r4, r10, r11, lr}
.Ltmp82:
	.cfi_def_cfa_offset 16
.Ltmp83:
	.cfi_offset lr, -4
.Ltmp84:
	.cfi_offset r11, -8
.Ltmp85:
	.cfi_offset r10, -12
.Ltmp86:
	.cfi_offset r4, -16
	.setfp	r11, sp, #8
	add	r11, sp, #8
.Ltmp87:
	.cfi_def_cfa r11, 8
	@DEBUG_VALUE: ~synthTimbre:this <- %R0
	mov	r4, r0
.Ltmp88:
	@DEBUG_VALUE: ~synthTimbre:this <- %R4
	.loc	9 160 37 prologue_end   @ /usr/bin/../lib/gcc/arm-linux-gnueabihf/6.3.0/../../../../include/c++/6.3.0/bits/stl_vector.h:160:37
	ldr	r0, [r4]
.Ltmp89:
	@DEBUG_VALUE: _M_deallocate:__p <- %R0
	@DEBUG_VALUE: deallocate:__p <- %R0
	@DEBUG_VALUE: deallocate:__p <- %R0
	.loc	9 177 6                 @ /usr/bin/../lib/gcc/arm-linux-gnueabihf/6.3.0/../../../../include/c++/6.3.0/bits/stl_vector.h:177:6
	cmp	r0, #0
	beq	.LBB7_2
.Ltmp90:
@ BB#1:
	@DEBUG_VALUE: deallocate:__p <- %R0
	@DEBUG_VALUE: deallocate:__p <- %R0
	@DEBUG_VALUE: _M_deallocate:__p <- %R0
	@DEBUG_VALUE: ~synthTimbre:this <- %R4
	.loc	5 110 9                 @ /usr/bin/../lib/gcc/arm-linux-gnueabihf/6.3.0/../../../../include/c++/6.3.0/ext/new_allocator.h:110:9
	bl	_ZdlPv
.Ltmp91:
.LBB7_2:                                @ %_ZNSt6vectorIfSaIfEED2Ev.exit
	@DEBUG_VALUE: ~synthTimbre:this <- %R4
	.loc	1 175 8                 @ /root/Bela/projects/final_project_v6/render.cpp:175:8
	mov	r0, r4
	pop	{r4, r10, r11, pc}
.Ltmp92:
.Lfunc_end7:
	.size	_ZN11synthTimbreD2Ev, .Lfunc_end7-_ZN11synthTimbreD2Ev
	.cfi_endproc
	.fnend

	.section	.text._ZNSt6vectorI11synthTimbreSaIS0_EED2Ev,"axG",%progbits,_ZNSt6vectorI11synthTimbreSaIS0_EED2Ev,comdat
	.weak	_ZNSt6vectorI11synthTimbreSaIS0_EED2Ev
	.p2align	2
	.type	_ZNSt6vectorI11synthTimbreSaIS0_EED2Ev,%function
_ZNSt6vectorI11synthTimbreSaIS0_EED2Ev: @ @_ZNSt6vectorI11synthTimbreSaIS0_EED2Ev
.Lfunc_begin8:
	.loc	9 426 0                 @ /usr/bin/../lib/gcc/arm-linux-gnueabihf/6.3.0/../../../../include/c++/6.3.0/bits/stl_vector.h:426:0
	.fnstart
	.cfi_startproc
@ BB#0:
	.save	{r4, r5, r6, r10, r11, lr}
	push	{r4, r5, r6, r10, r11, lr}
.Ltmp93:
	.cfi_def_cfa_offset 24
.Ltmp94:
	.cfi_offset lr, -4
.Ltmp95:
	.cfi_offset r11, -8
.Ltmp96:
	.cfi_offset r10, -12
.Ltmp97:
	.cfi_offset r6, -16
.Ltmp98:
	.cfi_offset r5, -20
.Ltmp99:
	.cfi_offset r4, -24
	.setfp	r11, sp, #16
	add	r11, sp, #16
.Ltmp100:
	.cfi_def_cfa r11, 8
	@DEBUG_VALUE: ~vector:this <- %R0
	mov	r4, r0
.Ltmp101:
	@DEBUG_VALUE: __destroy<synthTimbre *>:__last <- %R6
	@DEBUG_VALUE: _Destroy<synthTimbre *>:__last <- %R6
	@DEBUG_VALUE: _Destroy<synthTimbre *, synthTimbre>:__last <- %R6
	@DEBUG_VALUE: _Destroy<synthTimbre *, synthTimbre>:__first <- %R5
	@DEBUG_VALUE: _Destroy<synthTimbre *>:__first <- %R5
	@DEBUG_VALUE: __destroy<synthTimbre *>:__first <- %R5
	@DEBUG_VALUE: ~vector:this <- %R4
	.loc	9 426 37 prologue_end   @ /usr/bin/../lib/gcc/arm-linux-gnueabihf/6.3.0/../../../../include/c++/6.3.0/bits/stl_vector.h:426:37
	ldm	r4, {r5, r6}
.Ltmp102:
	.loc	55 102 4 discriminator 1 @ /usr/bin/../lib/gcc/arm-linux-gnueabihf/6.3.0/../../../../include/c++/6.3.0/bits/stl_construct.h:102:4
	cmp	r5, r6
	beq	.LBB8_5
.Ltmp103:
.LBB8_1:                                @ %.lr.ph.i.i.i
                                        @ =>This Inner Loop Header: Depth=1
	@DEBUG_VALUE: __addressof<synthTimbre>:__r <- %R5
	.loc	9 160 37                @ /usr/bin/../lib/gcc/arm-linux-gnueabihf/6.3.0/../../../../include/c++/6.3.0/bits/stl_vector.h:160:37
	ldr	r0, [r5]
.Ltmp104:
	@DEBUG_VALUE: _M_deallocate:__p <- %R0
	@DEBUG_VALUE: deallocate:__p <- %R0
	@DEBUG_VALUE: deallocate:__p <- %R0
	.loc	9 177 6                 @ /usr/bin/../lib/gcc/arm-linux-gnueabihf/6.3.0/../../../../include/c++/6.3.0/bits/stl_vector.h:177:6
	cmp	r0, #0
	beq	.LBB8_3
.Ltmp105:
@ BB#2:                                 @   in Loop: Header=BB8_1 Depth=1
	@DEBUG_VALUE: deallocate:__p <- %R0
	@DEBUG_VALUE: deallocate:__p <- %R0
	@DEBUG_VALUE: _M_deallocate:__p <- %R0
	@DEBUG_VALUE: __addressof<synthTimbre>:__r <- %R5
	.loc	5 110 9                 @ /usr/bin/../lib/gcc/arm-linux-gnueabihf/6.3.0/../../../../include/c++/6.3.0/ext/new_allocator.h:110:9
	bl	_ZdlPv
.Ltmp106:
.LBB8_3:                                @ %_ZSt8_DestroyI11synthTimbreEvPT_.exit.i.i.i
                                        @   in Loop: Header=BB8_1 Depth=1
	@DEBUG_VALUE: __addressof<synthTimbre>:__r <- %R5
	.loc	55 102 30 discriminator 2 @ /usr/bin/../lib/gcc/arm-linux-gnueabihf/6.3.0/../../../../include/c++/6.3.0/bits/stl_construct.h:102:30
	add	r5, r5, #16
.Ltmp107:
	@DEBUG_VALUE: __destroy<synthTimbre *>:__first <- %R5
	.loc	55 102 4 is_stmt 0 discriminator 1 @ /usr/bin/../lib/gcc/arm-linux-gnueabihf/6.3.0/../../../../include/c++/6.3.0/bits/stl_construct.h:102:4
	cmp	r6, r5
	bne	.LBB8_1
.Ltmp108:
@ BB#4:                                 @ %_ZSt8_DestroyIP11synthTimbreS0_EvT_S2_RSaIT0_E.exit.loopexit
	@DEBUG_VALUE: __destroy<synthTimbre *>:__first <- %R5
	.loc	9 160 37 is_stmt 1      @ /usr/bin/../lib/gcc/arm-linux-gnueabihf/6.3.0/../../../../include/c++/6.3.0/bits/stl_vector.h:160:37
	ldr	r5, [r4]
.Ltmp109:
.LBB8_5:                                @ %_ZSt8_DestroyIP11synthTimbreS0_EvT_S2_RSaIT0_E.exit
	@DEBUG_VALUE: _M_deallocate:__p <- %R5
	.loc	9 177 6                 @ /usr/bin/../lib/gcc/arm-linux-gnueabihf/6.3.0/../../../../include/c++/6.3.0/bits/stl_vector.h:177:6
	cmp	r5, #0
	beq	.LBB8_7
.Ltmp110:
@ BB#6:
	@DEBUG_VALUE: _M_deallocate:__p <- %R5
	.loc	5 110 9                 @ /usr/bin/../lib/gcc/arm-linux-gnueabihf/6.3.0/../../../../include/c++/6.3.0/ext/new_allocator.h:110:9
	mov	r0, r5
	bl	_ZdlPv
.Ltmp111:
.LBB8_7:                                @ %_ZNSt12_Vector_baseI11synthTimbreSaIS0_EED2Ev.exit
	@DEBUG_VALUE: _M_deallocate:__p <- %R5
	.loc	9 427 33 discriminator 1 @ /usr/bin/../lib/gcc/arm-linux-gnueabihf/6.3.0/../../../../include/c++/6.3.0/bits/stl_vector.h:427:33
	mov	r0, r4
	pop	{r4, r5, r6, r10, r11, pc}
.Ltmp112:
.Lfunc_end8:
	.size	_ZNSt6vectorI11synthTimbreSaIS0_EED2Ev, .Lfunc_end8-_ZNSt6vectorI11synthTimbreSaIS0_EED2Ev
	.cfi_endproc
	.file	57 "<stdin>"
	.fnend

	.text
	.globl	_Z23updateStoredFrequenciesv
	.p2align	2
	.type	_Z23updateStoredFrequenciesv,%function
_Z23updateStoredFrequenciesv:           @ @_Z23updateStoredFrequenciesv
.Lfunc_begin9:
	.loc	1 204 0                 @ /root/Bela/projects/final_project_v6/render.cpp:204:0
	.fnstart
	.cfi_startproc
@ BB#0:
	.save	{r4, r5, r6, r7, r11, lr}
	push	{r4, r5, r6, r7, r11, lr}
.Ltmp113:
	.cfi_def_cfa_offset 24
.Ltmp114:
	.cfi_offset lr, -4
.Ltmp115:
	.cfi_offset r11, -8
.Ltmp116:
	.cfi_offset r7, -12
.Ltmp117:
	.cfi_offset r6, -16
.Ltmp118:
	.cfi_offset r5, -20
.Ltmp119:
	.cfi_offset r4, -24
	.setfp	r11, sp, #16
	add	r11, sp, #16
.Ltmp120:
	.cfi_def_cfa r11, 8
.Ltmp121:
	@DEBUG_VALUE: i <- 0
	.loc	1 207 29 prologue_end   @ /root/Bela/projects/final_project_v6/render.cpp:207:29
	movw	r5, :lower16:.L_MergedGlobals
	.loc	1 207 21 is_stmt 0      @ /root/Bela/projects/final_project_v6/render.cpp:207:21
	movw	r6, :lower16:gChords
	.loc	1 207 29                @ /root/Bela/projects/final_project_v6/render.cpp:207:29
	movt	r5, :upper16:.L_MergedGlobals
	.loc	1 207 21                @ /root/Bela/projects/final_project_v6/render.cpp:207:21
	movt	r6, :upper16:gChords
	.loc	1 207 29                @ /root/Bela/projects/final_project_v6/render.cpp:207:29
	ldr	r0, [r5, #20]
	.loc	1 207 21                @ /root/Bela/projects/final_project_v6/render.cpp:207:21
	rsb	r0, r0, r0, lsl #3
	add	r0, r6, r0, lsl #2
	.loc	1 207 44                @ /root/Bela/projects/final_project_v6/render.cpp:207:44
	bl	_ZN5Chord10buildChordEv
	.loc	1 208 14 is_stmt 1      @ /root/Bela/projects/final_project_v6/render.cpp:208:14
	movw	r4, :lower16:gVoices
	.loc	1 207 19                @ /root/Bela/projects/final_project_v6/render.cpp:207:19
	movw	r7, :lower16:.L_MergedGlobals.4
	.loc	1 208 14                @ /root/Bela/projects/final_project_v6/render.cpp:208:14
	movt	r4, :upper16:gVoices
	.loc	1 207 19                @ /root/Bela/projects/final_project_v6/render.cpp:207:19
	movt	r7, :upper16:.L_MergedGlobals.4
	.loc	1 208 14                @ /root/Bela/projects/final_project_v6/render.cpp:208:14
	mov	r0, r4
	.loc	1 207 19                @ /root/Bela/projects/final_project_v6/render.cpp:207:19
	vstr	s0, [r7, #100]
	.loc	1 208 14                @ /root/Bela/projects/final_project_v6/render.cpp:208:14
	bl	_ZN5Voice12setFrequencyEf
.Ltmp122:
	@DEBUG_VALUE: i <- 1
	.loc	1 207 29                @ /root/Bela/projects/final_project_v6/render.cpp:207:29
	ldr	r0, [r5, #20]
	.loc	1 207 21 is_stmt 0      @ /root/Bela/projects/final_project_v6/render.cpp:207:21
	rsb	r0, r0, r0, lsl #3
	add	r0, r6, r0, lsl #2
	.loc	1 207 44                @ /root/Bela/projects/final_project_v6/render.cpp:207:44
	bl	_ZN5Chord10buildChordEv
	.loc	1 208 14 is_stmt 1      @ /root/Bela/projects/final_project_v6/render.cpp:208:14
	vmov.f32	s0, s1
	add	r0, r4, #76
	.loc	1 207 19                @ /root/Bela/projects/final_project_v6/render.cpp:207:19
	vstr	s1, [r7, #104]
	.loc	1 208 14                @ /root/Bela/projects/final_project_v6/render.cpp:208:14
	bl	_ZN5Voice12setFrequencyEf
	.loc	1 207 29                @ /root/Bela/projects/final_project_v6/render.cpp:207:29
	ldr	r0, [r5, #20]
	.loc	1 207 21 is_stmt 0      @ /root/Bela/projects/final_project_v6/render.cpp:207:21
	rsb	r0, r0, r0, lsl #3
	add	r0, r6, r0, lsl #2
	.loc	1 207 44                @ /root/Bela/projects/final_project_v6/render.cpp:207:44
	bl	_ZN5Chord10buildChordEv
	.loc	1 208 14 is_stmt 1      @ /root/Bela/projects/final_project_v6/render.cpp:208:14
	vmov.f32	s0, s2
	add	r0, r4, #152
	.loc	1 207 19                @ /root/Bela/projects/final_project_v6/render.cpp:207:19
	vstr	s2, [r7, #108]
	.loc	1 208 14                @ /root/Bela/projects/final_project_v6/render.cpp:208:14
	bl	_ZN5Voice12setFrequencyEf
	.loc	1 207 29                @ /root/Bela/projects/final_project_v6/render.cpp:207:29
	ldr	r0, [r5, #20]
	.loc	1 207 21 is_stmt 0      @ /root/Bela/projects/final_project_v6/render.cpp:207:21
	rsb	r0, r0, r0, lsl #3
	add	r0, r6, r0, lsl #2
	.loc	1 207 44                @ /root/Bela/projects/final_project_v6/render.cpp:207:44
	bl	_ZN5Chord10buildChordEv
	.loc	1 207 19                @ /root/Bela/projects/final_project_v6/render.cpp:207:19
	vstr	s3, [r7, #112]
	.loc	1 208 14 is_stmt 1      @ /root/Bela/projects/final_project_v6/render.cpp:208:14
	add	r0, r4, #228
	vmov.f32	s0, s3
	pop	{r4, r5, r6, r7, r11, lr}
	b	_ZN5Voice12setFrequencyEf
.Ltmp123:
.Lfunc_end9:
	.size	_Z23updateStoredFrequenciesv, .Lfunc_end9-_Z23updateStoredFrequenciesv
	.cfi_endproc
	.fnend

	.globl	_Z17updateSynthTimbrev
	.p2align	2
	.type	_Z17updateSynthTimbrev,%function
_Z17updateSynthTimbrev:                 @ @_Z17updateSynthTimbrev
.Lfunc_begin10:
	.loc	1 215 0                 @ /root/Bela/projects/final_project_v6/render.cpp:215:0
	.fnstart
	.cfi_startproc
@ BB#0:
	.save	{r4, r5, r11, lr}
	push	{r4, r5, r11, lr}
.Ltmp124:
	.cfi_def_cfa_offset 16
.Ltmp125:
	.cfi_offset lr, -4
.Ltmp126:
	.cfi_offset r11, -8
.Ltmp127:
	.cfi_offset r5, -12
.Ltmp128:
	.cfi_offset r4, -16
	.setfp	r11, sp, #8
	add	r11, sp, #8
.Ltmp129:
	.cfi_def_cfa r11, 8
.Ltmp130:
	@DEBUG_VALUE: i <- 0
	.loc	1 218 52 prologue_end   @ /root/Bela/projects/final_project_v6/render.cpp:218:52
	movw	r5, :lower16:.L_MergedGlobals.4
	.loc	1 218 14 is_stmt 0 discriminator 1 @ /root/Bela/projects/final_project_v6/render.cpp:218:14
	movw	r4, :lower16:gVoices
	.loc	1 218 52                @ /root/Bela/projects/final_project_v6/render.cpp:218:52
	movt	r5, :upper16:.L_MergedGlobals.4
	.loc	1 218 14 discriminator 1 @ /root/Bela/projects/final_project_v6/render.cpp:218:14
	movt	r4, :upper16:gVoices
	.loc	1 218 52                @ /root/Bela/projects/final_project_v6/render.cpp:218:52
	ldr	r0, [r5, #12]
.Ltmp131:
	@DEBUG_VALUE: operator[]:__n <- %R0
	@DEBUG_VALUE: operator[]:__n <- %R0
	.loc	9 781 32 is_stmt 1      @ /usr/bin/../lib/gcc/arm-linux-gnueabihf/6.3.0/../../../../include/c++/6.3.0/bits/stl_vector.h:781:32
	ldr	r1, [r5, #88]
.Ltmp132:
	.loc	1 218 73                @ /root/Bela/projects/final_project_v6/render.cpp:218:73
	add	r1, r1, r0, lsl #4
	.loc	1 218 14 is_stmt 0 discriminator 1 @ /root/Bela/projects/final_project_v6/render.cpp:218:14
	mov	r0, r4
.Ltmp133:
	ldrb	r2, [r1, #12]
	bl	_ZN5Voice23setOscillatorAmplitudesERSt6vectorIfSaIfEEb
.Ltmp134:
	@DEBUG_VALUE: i <- 1
	.loc	1 218 52                @ /root/Bela/projects/final_project_v6/render.cpp:218:52
	ldr	r0, [r5, #12]
.Ltmp135:
	.loc	9 781 32 is_stmt 1      @ /usr/bin/../lib/gcc/arm-linux-gnueabihf/6.3.0/../../../../include/c++/6.3.0/bits/stl_vector.h:781:32
	ldr	r1, [r5, #88]
.Ltmp136:
	.loc	1 218 73                @ /root/Bela/projects/final_project_v6/render.cpp:218:73
	add	r1, r1, r0, lsl #4
	.loc	1 218 14 is_stmt 0 discriminator 1 @ /root/Bela/projects/final_project_v6/render.cpp:218:14
	add	r0, r4, #76
	ldrb	r2, [r1, #12]
	bl	_ZN5Voice23setOscillatorAmplitudesERSt6vectorIfSaIfEEb
	.loc	1 218 52                @ /root/Bela/projects/final_project_v6/render.cpp:218:52
	ldr	r0, [r5, #12]
.Ltmp137:
	.loc	9 781 32 is_stmt 1      @ /usr/bin/../lib/gcc/arm-linux-gnueabihf/6.3.0/../../../../include/c++/6.3.0/bits/stl_vector.h:781:32
	ldr	r1, [r5, #88]
.Ltmp138:
	.loc	1 218 73                @ /root/Bela/projects/final_project_v6/render.cpp:218:73
	add	r1, r1, r0, lsl #4
	.loc	1 218 14 is_stmt 0 discriminator 1 @ /root/Bela/projects/final_project_v6/render.cpp:218:14
	add	r0, r4, #152
	ldrb	r2, [r1, #12]
	bl	_ZN5Voice23setOscillatorAmplitudesERSt6vectorIfSaIfEEb
	.loc	1 218 52                @ /root/Bela/projects/final_project_v6/render.cpp:218:52
	ldr	r0, [r5, #12]
.Ltmp139:
	.loc	9 781 32 is_stmt 1      @ /usr/bin/../lib/gcc/arm-linux-gnueabihf/6.3.0/../../../../include/c++/6.3.0/bits/stl_vector.h:781:32
	ldr	r1, [r5, #88]
.Ltmp140:
	.loc	1 218 73                @ /root/Bela/projects/final_project_v6/render.cpp:218:73
	add	r1, r1, r0, lsl #4
	.loc	1 218 14 is_stmt 0 discriminator 1 @ /root/Bela/projects/final_project_v6/render.cpp:218:14
	add	r0, r4, #228
	ldrb	r2, [r1, #12]
	pop	{r4, r5, r11, lr}
	b	_ZN5Voice23setOscillatorAmplitudesERSt6vectorIfSaIfEEb
.Ltmp141:
.Lfunc_end10:
	.size	_Z17updateSynthTimbrev, .Lfunc_end10-_Z17updateSynthTimbrev
	.cfi_endproc
	.fnend

	.globl	setup
	.p2align	4
	.type	setup,%function
setup:                                  @ @setup
.Lfunc_begin11:
	.loc	1 225 0 is_stmt 1       @ /root/Bela/projects/final_project_v6/render.cpp:225:0
	.fnstart
	.cfi_startproc
@ BB#0:
	.save	{r4, r5, r6, r7, r8, r9, r10, r11, lr}
	push	{r4, r5, r6, r7, r8, r9, r10, r11, lr}
.Ltmp142:
	.cfi_def_cfa_offset 36
.Ltmp143:
	.cfi_offset lr, -4
.Ltmp144:
	.cfi_offset r11, -8
.Ltmp145:
	.cfi_offset r10, -12
.Ltmp146:
	.cfi_offset r9, -16
.Ltmp147:
	.cfi_offset r8, -20
.Ltmp148:
	.cfi_offset r7, -24
.Ltmp149:
	.cfi_offset r6, -28
.Ltmp150:
	.cfi_offset r5, -32
.Ltmp151:
	.cfi_offset r4, -36
	.setfp	r11, sp, #28
	add	r11, sp, #28
.Ltmp152:
	.cfi_def_cfa r11, 8
	.pad	#4
	sub	sp, sp, #4
	.vsave	{d10, d11}
	vpush	{d10, d11}
	.vsave	{d8}
	vpush	{d8}
.Ltmp153:
	.cfi_offset d11, -48
.Ltmp154:
	.cfi_offset d10, -56
.Ltmp155:
	.cfi_offset d8, -64
	.pad	#88
	sub	sp, sp, #88
	@DEBUG_VALUE: setup:context <- %R0
	@DEBUG_VALUE: setup:userData <- %R1
	mov	r10, r0
.Ltmp156:
	@DEBUG_VALUE: setup:context <- %R10
	.loc	1 227 24 prologue_end   @ /root/Bela/projects/final_project_v6/render.cpp:227:24
	vldr	s0, .LCPI11_6
	.loc	1 227 35 is_stmt 0      @ /root/Bela/projects/final_project_v6/render.cpp:227:35
	vldr	s16, [r10, #32]
	.loc	1 227 53                @ /root/Bela/projects/final_project_v6/render.cpp:227:53
	movw	r7, :lower16:.L_MergedGlobals
	movt	r7, :upper16:.L_MergedGlobals
	.loc	1 227 24                @ /root/Bela/projects/final_project_v6/render.cpp:227:24
	vmul.f32	d0, d8, d0
	.loc	1 227 53                @ /root/Bela/projects/final_project_v6/render.cpp:227:53
	vldr	s2, [r7, #44]
	.loc	1 227 51                @ /root/Bela/projects/final_project_v6/render.cpp:227:51
	vdiv.f32	s0, s0, s2
	.loc	1 227 21                @ /root/Bela/projects/final_project_v6/render.cpp:227:21
	vcvt.u32.f32	d0, d0
	vmov	r0, s0
	.loc	1 227 19                @ /root/Bela/projects/final_project_v6/render.cpp:227:19
	str	r0, [r7, #52]
	.loc	1 228 38 is_stmt 1      @ /root/Bela/projects/final_project_v6/render.cpp:228:38
	ldr	r1, [r7, #64]
.Ltmp157:
	.loc	1 228 36 is_stmt 0      @ /root/Bela/projects/final_project_v6/render.cpp:228:36
	bl	__aeabi_uidiv
	.loc	1 228 17                @ /root/Bela/projects/final_project_v6/render.cpp:228:17
	str	r0, [r7, #56]
	.loc	1 234 55 is_stmt 1      @ /root/Bela/projects/final_project_v6/render.cpp:234:55
	movw	r4, :lower16:.L_MergedGlobals.4
	.loc	1 231 55                @ /root/Bela/projects/final_project_v6/render.cpp:231:55
	ldr	r0, [r7, #68]
	.loc	1 234 55                @ /root/Bela/projects/final_project_v6/render.cpp:234:55
	movt	r4, :upper16:.L_MergedGlobals.4
	.loc	1 231 53                @ /root/Bela/projects/final_project_v6/render.cpp:231:53
	vldr	s0, .LCPI11_7
	.loc	1 241 16                @ /root/Bela/projects/final_project_v6/render.cpp:241:16
	movw	r5, :lower16:.L_MergedGlobals.5
	add	r6, r4, #28
.Ltmp158:
	@DEBUG_VALUE: size:this <- %R6
	movt	r5, :upper16:.L_MergedGlobals.5
	.loc	1 231 53                @ /root/Bela/projects/final_project_v6/render.cpp:231:53
	vmul.f32	d16, d8, d0
	.loc	1 231 55 is_stmt 0      @ /root/Bela/projects/final_project_v6/render.cpp:231:55
	vmov	s0, r0
	vcvt.f32.u32	d17, d0
	.loc	1 231 81                @ /root/Bela/projects/final_project_v6/render.cpp:231:81
	vmul.f32	d16, d16, d17
	.loc	1 231 28                @ /root/Bela/projects/final_project_v6/render.cpp:231:28
	vcvt.u32.f32	d0, d16
	vmov	r0, s0
	.loc	1 234 55 is_stmt 1      @ /root/Bela/projects/final_project_v6/render.cpp:234:55
	vldr	s0, [r4, #16]
	.loc	1 234 53 is_stmt 0      @ /root/Bela/projects/final_project_v6/render.cpp:234:53
	vmul.f32	d16, d0, d8
	.loc	1 234 28                @ /root/Bela/projects/final_project_v6/render.cpp:234:28
	vcvt.u32.f32	d0, d16
	.loc	1 231 26 is_stmt 1      @ /root/Bela/projects/final_project_v6/render.cpp:231:26
	str	r0, [r7, #72]
	.loc	1 234 28                @ /root/Bela/projects/final_project_v6/render.cpp:234:28
	vmov	r0, s0
	.loc	1 234 26 is_stmt 0      @ /root/Bela/projects/final_project_v6/render.cpp:234:26
	str	r0, [r4, #20]
	.loc	1 237 46 is_stmt 1      @ /root/Bela/projects/final_project_v6/render.cpp:237:46
	add	r1, r0, #1
	.loc	1 237 20 is_stmt 0      @ /root/Bela/projects/final_project_v6/render.cpp:237:20
	str	r1, [r4, #24]
	.loc	1 241 16 is_stmt 1      @ /root/Bela/projects/final_project_v6/render.cpp:241:16
	mov	r0, r6
	mov	r1, r5
	bl	_ZNSt6vectorISt5arrayIiLj4EESaIS1_EE9push_backERKS1_
	.loc	1 242 16                @ /root/Bela/projects/final_project_v6/render.cpp:242:16
	add	r1, r5, #16
	mov	r0, r6
	bl	_ZNSt6vectorISt5arrayIiLj4EESaIS1_EE9push_backERKS1_
	.loc	1 243 16                @ /root/Bela/projects/final_project_v6/render.cpp:243:16
	add	r1, r5, #32
	mov	r0, r6
	bl	_ZNSt6vectorISt5arrayIiLj4EESaIS1_EE9push_backERKS1_
	.loc	1 244 16                @ /root/Bela/projects/final_project_v6/render.cpp:244:16
	add	r1, r5, #48
	mov	r0, r6
	bl	_ZNSt6vectorISt5arrayIiLj4EESaIS1_EE9push_backERKS1_
	.loc	1 245 16                @ /root/Bela/projects/final_project_v6/render.cpp:245:16
	add	r1, r5, #64
	mov	r0, r6
	bl	_ZNSt6vectorISt5arrayIiLj4EESaIS1_EE9push_backERKS1_
	.loc	1 246 16                @ /root/Bela/projects/final_project_v6/render.cpp:246:16
	add	r1, r5, #80
	mov	r0, r6
	bl	_ZNSt6vectorISt5arrayIiLj4EESaIS1_EE9push_backERKS1_
	.loc	1 247 16                @ /root/Bela/projects/final_project_v6/render.cpp:247:16
	add	r1, r5, #96
	mov	r0, r6
	bl	_ZNSt6vectorISt5arrayIiLj4EESaIS1_EE9push_backERKS1_
	.loc	1 248 16                @ /root/Bela/projects/final_project_v6/render.cpp:248:16
	movw	r5, :lower16:.L_MergedGlobals.6
	mov	r0, r6
	movt	r5, :upper16:.L_MergedGlobals.6
	mov	r1, r5
	bl	_ZNSt6vectorISt5arrayIiLj4EESaIS1_EE9push_backERKS1_
	.loc	1 249 16                @ /root/Bela/projects/final_project_v6/render.cpp:249:16
	add	r1, r5, #16
	mov	r0, r6
	bl	_ZNSt6vectorISt5arrayIiLj4EESaIS1_EE9push_backERKS1_
	.loc	1 250 16                @ /root/Bela/projects/final_project_v6/render.cpp:250:16
	add	r1, r5, #32
	mov	r0, r6
	bl	_ZNSt6vectorISt5arrayIiLj4EESaIS1_EE9push_backERKS1_
.Ltmp159:
	.loc	9 656 66                @ /usr/bin/../lib/gcc/arm-linux-gnueabihf/6.3.0/../../../../include/c++/6.3.0/bits/stl_vector.h:656:66
	ldr	r0, [r4, #28]
.Ltmp160:
	.loc	1 255 27                @ /root/Bela/projects/final_project_v6/render.cpp:255:27
	vmov.i32	q5, #0x0
.Ltmp161:
	.loc	9 656 40                @ /usr/bin/../lib/gcc/arm-linux-gnueabihf/6.3.0/../../../../include/c++/6.3.0/bits/stl_vector.h:656:40
	ldr	r1, [r4, #32]
.Ltmp162:
	.loc	1 256 17                @ /root/Bela/projects/final_project_v6/render.cpp:256:17
	movw	r6, :lower16:.L_MergedGlobals.7
.Ltmp163:
	mov	r5, #0
	movt	r6, :upper16:.L_MergedGlobals.7
.Ltmp164:
	.loc	9 656 50                @ /usr/bin/../lib/gcc/arm-linux-gnueabihf/6.3.0/../../../../include/c++/6.3.0/bits/stl_vector.h:656:50
	sub	r0, r1, r0
	add	r1, sp, #48
.Ltmp165:
	@DEBUG_VALUE: setup:settings <- [%R1+0]
	asr	r0, r0, #4
.Ltmp166:
	.loc	1 252 16                @ /root/Bela/projects/final_project_v6/render.cpp:252:16
	str	r0, [r4, #4]
	.loc	1 255 27                @ /root/Bela/projects/final_project_v6/render.cpp:255:27
	add	r0, r1, #16
	.loc	1 255 44 is_stmt 0      @ /root/Bela/projects/final_project_v6/render.cpp:255:44
	vldr	s0, [r10, #32]
	.loc	1 255 35                @ /root/Bela/projects/final_project_v6/render.cpp:255:35
	vcvt.f64.f32	d16, s0
	.loc	1 255 27                @ /root/Bela/projects/final_project_v6/render.cpp:255:27
	vstr	d16, [sp, #48]
	str	r5, [sp, #56]
	vst1.64	{d10, d11}, [r0]
	.loc	1 256 17 is_stmt 1      @ /root/Bela/projects/final_project_v6/render.cpp:256:17
	mov	r0, r6
	.loc	1 255 27                @ /root/Bela/projects/final_project_v6/render.cpp:255:27
	str	r5, [sp, #84]
	str	r5, [sp, #80]
	.loc	1 256 17                @ /root/Bela/projects/final_project_v6/render.cpp:256:17
	bl	_ZN6Biquad5setupERKNS_8SettingsE
.Ltmp167:
	.loc	1 257 17                @ /root/Bela/projects/final_project_v6/render.cpp:257:17
	vldr	d8, .LCPI11_8
	mov	r0, r6
	vorr	d0, d8, d8
	bl	_ZN6Biquad4setQEd
	.loc	1 258 20                @ /root/Bela/projects/final_project_v6/render.cpp:258:20
	vmov.i32	d0, #0x0
	mov	r0, r6
	bl	_ZN6Biquad11setPeakGainEd
	.loc	1 259 20                @ /root/Bela/projects/final_project_v6/render.cpp:259:20
	vldr	d0, .LCPI11_9
	mov	r0, r6
	bl	_ZN6Biquad5setFcEd
	.loc	1 262 45                @ /root/Bela/projects/final_project_v6/render.cpp:262:45
	vldr	s0, [r10, #32]
	add	r1, sp, #8
.Ltmp168:
	@DEBUG_VALUE: setup:settings2 <- [%R1+0]
	.loc	1 263 17                @ /root/Bela/projects/final_project_v6/render.cpp:263:17
	movw	r6, :lower16:.L_MergedGlobals.8
	.loc	1 262 28                @ /root/Bela/projects/final_project_v6/render.cpp:262:28
	add	r0, r1, #16
	.loc	1 262 36 is_stmt 0      @ /root/Bela/projects/final_project_v6/render.cpp:262:36
	vcvt.f64.f32	d16, s0
	.loc	1 263 17 is_stmt 1      @ /root/Bela/projects/final_project_v6/render.cpp:263:17
	movt	r6, :upper16:.L_MergedGlobals.8
	.loc	1 262 28                @ /root/Bela/projects/final_project_v6/render.cpp:262:28
	vstr	d16, [sp, #8]
	str	r5, [sp, #16]
	vst1.64	{d10, d11}, [r0]
	.loc	1 263 17                @ /root/Bela/projects/final_project_v6/render.cpp:263:17
	mov	r0, r6
	.loc	1 262 28                @ /root/Bela/projects/final_project_v6/render.cpp:262:28
	str	r5, [sp, #44]
	str	r5, [sp, #40]
	.loc	1 263 17                @ /root/Bela/projects/final_project_v6/render.cpp:263:17
	bl	_ZN6Biquad5setupERKNS_8SettingsE
.Ltmp169:
	.loc	1 264 17                @ /root/Bela/projects/final_project_v6/render.cpp:264:17
	vorr	d0, d8, d8
	mov	r0, r6
	bl	_ZN6Biquad4setQEd
	.loc	1 265 20                @ /root/Bela/projects/final_project_v6/render.cpp:265:20
	vmov.i32	d0, #0x0
	mov	r0, r6
	bl	_ZN6Biquad11setPeakGainEd
	.loc	1 266 26                @ /root/Bela/projects/final_project_v6/render.cpp:266:26
	vldr	s0, [r7, #120]
	.loc	1 266 20 is_stmt 0      @ /root/Bela/projects/final_project_v6/render.cpp:266:20
	mov	r0, r6
	.loc	1 266 26                @ /root/Bela/projects/final_project_v6/render.cpp:266:26
	vcvt.f64.f32	d0, s0
	.loc	1 266 20                @ /root/Bela/projects/final_project_v6/render.cpp:266:20
	bl	_ZN6Biquad5setFcEd
.Ltmp170:
	@DEBUG_VALUE: pinMode:f <- 0
	@DEBUG_VALUE: pinMode:mode <- 0
	@DEBUG_VALUE: pinMode:channel <- 0
	@DEBUG_VALUE: pinMode:frame <- 0
	@DEBUG_VALUE: pinMode:context <- %R10
	.loc	30 1356 30 is_stmt 1 discriminator 1 @ ./include/Bela.h:1356:30
	ldr	r0, [r10, #52]
	.loc	30 1356 2 is_stmt 0 discriminator 1 @ ./include/Bela.h:1356:2
	cmp	r0, #0
	beq	.LBB11_15
.Ltmp171:
@ BB#1:                                 @ %.lr.ph.i
	@DEBUG_VALUE: pinMode:context <- %R10
	@DEBUG_VALUE: setup:context <- %R10
	.loc	30 1358 13 is_stmt 1    @ ./include/Bela.h:1358:13
	ldr	r0, [r10, #16]
.Ltmp172:
.LBB11_2:                               @ %.lr.ph.split.us.i
                                        @ =>This Inner Loop Header: Depth=1
	.loc	30 1358 24 is_stmt 0    @ ./include/Bela.h:1358:24
	ldr	r1, [r0, r5, lsl #2]
	orr	r1, r1, #1
	str	r1, [r0, r5, lsl #2]
.Ltmp173:
	.loc	30 1356 46 is_stmt 1 discriminator 2 @ ./include/Bela.h:1356:46
	add	r5, r5, #1
.Ltmp174:
	@DEBUG_VALUE: pinMode:f <- %R5
	.loc	30 1356 30 is_stmt 0 discriminator 1 @ ./include/Bela.h:1356:30
	ldr	r1, [r10, #52]
	.loc	30 1356 2 discriminator 1 @ ./include/Bela.h:1356:2
	cmp	r5, r1
	blo	.LBB11_2
.Ltmp175:
@ BB#3:                                 @ %_ZL7pinModeP11BelaContextiii.exit
	@DEBUG_VALUE: pinMode:f <- %R5
	@DEBUG_VALUE: pinMode:frame <- 1
	@DEBUG_VALUE: pinMode:channel <- 1
	@DEBUG_VALUE: pinMode:mode <- 0
	@DEBUG_VALUE: pinMode:f <- 1
	.loc	30 1356 2 discriminator 1 @ ./include/Bela.h:1356:2
	cmp	r1, #2
	blo	.LBB11_15
.Ltmp176:
@ BB#4:                                 @ %.lr.ph.split.us.i57.preheader
	@DEBUG_VALUE: pinMode:f <- %R5
	mov	r1, #1
.Ltmp177:
.LBB11_5:                               @ %.lr.ph.split.us.i57
                                        @ =>This Inner Loop Header: Depth=1
	.loc	30 1358 24 is_stmt 1    @ ./include/Bela.h:1358:24
	ldr	r2, [r0, r1, lsl #2]
	orr	r2, r2, #2
	str	r2, [r0, r1, lsl #2]
.Ltmp178:
	.loc	30 1356 46 discriminator 2 @ ./include/Bela.h:1356:46
	add	r1, r1, #1
.Ltmp179:
	@DEBUG_VALUE: pinMode:f <- %R1
	.loc	30 1356 30 is_stmt 0 discriminator 1 @ ./include/Bela.h:1356:30
	ldr	r2, [r10, #52]
	.loc	30 1356 2 discriminator 1 @ ./include/Bela.h:1356:2
	cmp	r1, r2
.Ltmp180:
	@DEBUG_VALUE: pinMode:context <- %R10
	blo	.LBB11_5
.Ltmp181:
@ BB#6:                                 @ %_ZL7pinModeP11BelaContextiii.exit58
	@DEBUG_VALUE: pinMode:context <- %R10
	@DEBUG_VALUE: pinMode:f <- %R1
	@DEBUG_VALUE: pinMode:frame <- 2
	@DEBUG_VALUE: pinMode:channel <- 2
	@DEBUG_VALUE: pinMode:mode <- 0
	@DEBUG_VALUE: pinMode:f <- 2
	.loc	30 1356 2 discriminator 1 @ ./include/Bela.h:1356:2
	cmp	r2, #3
	blo	.LBB11_15
.Ltmp182:
@ BB#7:                                 @ %.lr.ph.i60
	@DEBUG_VALUE: pinMode:context <- %R10
	@DEBUG_VALUE: pinMode:f <- %R1
	@DEBUG_VALUE: pinMode:context <- %R10
	.loc	30 1358 13 is_stmt 1    @ ./include/Bela.h:1358:13
	ldr	r0, [r10, #16]
	mov	r1, #2
.Ltmp183:
.LBB11_8:                               @ %.lr.ph.split.us.i62
                                        @ =>This Inner Loop Header: Depth=1
	.loc	30 1358 24 is_stmt 0    @ ./include/Bela.h:1358:24
	ldr	r2, [r0, r1, lsl #2]
	orr	r2, r2, #4
	str	r2, [r0, r1, lsl #2]
.Ltmp184:
	.loc	30 1356 46 is_stmt 1 discriminator 2 @ ./include/Bela.h:1356:46
	add	r1, r1, #1
.Ltmp185:
	@DEBUG_VALUE: pinMode:f <- %R1
	.loc	30 1356 30 is_stmt 0 discriminator 1 @ ./include/Bela.h:1356:30
	ldr	r2, [r10, #52]
	.loc	30 1356 2 discriminator 1 @ ./include/Bela.h:1356:2
	cmp	r1, r2
	blo	.LBB11_8
.Ltmp186:
@ BB#9:                                 @ %_ZL7pinModeP11BelaContextiii.exit63
	@DEBUG_VALUE: pinMode:f <- %R1
	@DEBUG_VALUE: pinMode:frame <- 3
	@DEBUG_VALUE: pinMode:channel <- 3
	@DEBUG_VALUE: pinMode:mode <- 1
	@DEBUG_VALUE: pinMode:f <- 3
	.loc	30 1356 2 discriminator 1 @ ./include/Bela.h:1356:2
	cmp	r2, #4
	blo	.LBB11_15
.Ltmp187:
@ BB#10:                                @ %.lr.ph.i69
	@DEBUG_VALUE: pinMode:f <- %R1
	@DEBUG_VALUE: pinMode:context <- %R10
	.loc	30 1358 13 is_stmt 1    @ ./include/Bela.h:1358:13
	ldr	r0, [r10, #16]
	mov	r1, #3
.Ltmp188:
.LBB11_11:                              @ %.lr.ph.split.i
                                        @ =>This Inner Loop Header: Depth=1
	.loc	30 1360 24              @ ./include/Bela.h:1360:24
	ldr	r2, [r0, r1, lsl #2]
	bfc	r2, #3, #1
	str	r2, [r0, r1, lsl #2]
.Ltmp189:
	.loc	30 1356 46 discriminator 2 @ ./include/Bela.h:1356:46
	add	r1, r1, #1
.Ltmp190:
	@DEBUG_VALUE: pinMode:f <- %R1
	.loc	30 1356 30 is_stmt 0 discriminator 1 @ ./include/Bela.h:1356:30
	ldr	r2, [r10, #52]
	.loc	30 1356 2 discriminator 1 @ ./include/Bela.h:1356:2
	cmp	r1, r2
	blo	.LBB11_11
.Ltmp191:
@ BB#12:                                @ %_ZL7pinModeP11BelaContextiii.exit70
	@DEBUG_VALUE: pinMode:f <- %R1
	@DEBUG_VALUE: pinMode:frame <- 4
	@DEBUG_VALUE: pinMode:channel <- 4
	@DEBUG_VALUE: pinMode:mode <- 1
	@DEBUG_VALUE: pinMode:f <- 4
	.loc	30 1356 2 discriminator 1 @ ./include/Bela.h:1356:2
	cmp	r2, #5
	blo	.LBB11_15
.Ltmp192:
@ BB#13:                                @ %.lr.ph.i72
	@DEBUG_VALUE: pinMode:f <- %R1
	@DEBUG_VALUE: pinMode:context <- %R10
	.loc	30 1358 13 is_stmt 1    @ ./include/Bela.h:1358:13
	ldr	r0, [r10, #16]
	mov	r1, #4
.Ltmp193:
.LBB11_14:                              @ %.lr.ph.split.i74
                                        @ =>This Inner Loop Header: Depth=1
	.loc	30 1360 24              @ ./include/Bela.h:1360:24
	ldr	r2, [r0, r1, lsl #2]
	bfc	r2, #4, #1
	str	r2, [r0, r1, lsl #2]
.Ltmp194:
	.loc	30 1356 46 discriminator 2 @ ./include/Bela.h:1356:46
	add	r1, r1, #1
.Ltmp195:
	@DEBUG_VALUE: pinMode:f <- %R1
	.loc	30 1356 30 is_stmt 0 discriminator 1 @ ./include/Bela.h:1356:30
	ldr	r2, [r10, #52]
	.loc	30 1356 2 discriminator 1 @ ./include/Bela.h:1356:2
	cmp	r1, r2
	blo	.LBB11_14
.Ltmp196:
.LBB11_15:                              @ %_ZL7pinModeP11BelaContextiii.exit75
	.loc	1 275 58 is_stmt 1      @ /root/Bela/projects/final_project_v6/render.cpp:275:58
	vmov.f32	d16, #5.000000e-01
	.loc	1 275 43 is_stmt 0      @ /root/Bela/projects/final_project_v6/render.cpp:275:43
	vldr	s0, [r10, #32]
	.loc	1 275 14                @ /root/Bela/projects/final_project_v6/render.cpp:275:14
	vldr	s2, [r10, #48]
	.loc	1 275 58                @ /root/Bela/projects/final_project_v6/render.cpp:275:58
	vmul.f32	d0, d0, d16
.Ltmp197:
	.loc	1 275 5                 @ /root/Bela/projects/final_project_v6/render.cpp:275:5
	vcmpe.f32	s2, s0
	vmrs	APSR_nzcv, fpscr
	bne	.LBB11_124
@ BB#16:
.Ltmp198:
	.loc	9 656 66 is_stmt 1      @ /usr/bin/../lib/gcc/arm-linux-gnueabihf/6.3.0/../../../../include/c++/6.3.0/bits/stl_vector.h:656:66
	ldrd	r2, r3, [r4, #40]
.Ltmp199:
	.loc	1 282 29                @ /root/Bela/projects/final_project_v6/render.cpp:282:29
	ldr	r0, [r4, #8]
.Ltmp200:
	@DEBUG_VALUE: resize:__new_size <- %R0
	.loc	9 656 50                @ /usr/bin/../lib/gcc/arm-linux-gnueabihf/6.3.0/../../../../include/c++/6.3.0/bits/stl_vector.h:656:50
	sub	r3, r3, r2
	asr	r1, r3, #2
.Ltmp201:
	.loc	9 676 6                 @ /usr/bin/../lib/gcc/arm-linux-gnueabihf/6.3.0/../../../../include/c++/6.3.0/bits/stl_vector.h:676:6
	cmp	r0, r3, asr #2
	bls	.LBB11_18
.Ltmp202:
@ BB#17:
	@DEBUG_VALUE: resize:__new_size <- %R0
	.loc	9 677 33                @ /usr/bin/../lib/gcc/arm-linux-gnueabihf/6.3.0/../../../../include/c++/6.3.0/bits/stl_vector.h:677:33
	sub	r1, r0, r1
	.loc	9 677 4 is_stmt 0 discriminator 1 @ /usr/bin/../lib/gcc/arm-linux-gnueabihf/6.3.0/../../../../include/c++/6.3.0/bits/stl_vector.h:677:4
	add	r0, r4, #40
.Ltmp203:
	@DEBUG_VALUE: _M_erase_at_end:this <- %R0
	bl	_ZNSt6vectorIfSaIfEE17_M_default_appendEj
.Ltmp204:
	.loc	1 283 31 is_stmt 1 discriminator 1 @ /root/Bela/projects/final_project_v6/render.cpp:283:31
	ldr	r0, [r4, #8]
	b	.LBB11_19
.Ltmp205:
.LBB11_18:
	@DEBUG_VALUE: resize:__new_size <- %R0
	.loc	9 678 11                @ /usr/bin/../lib/gcc/arm-linux-gnueabihf/6.3.0/../../../../include/c++/6.3.0/bits/stl_vector.h:678:11
	cmp	r0, r1
.Ltmp206:
	.loc	9 679 43                @ /usr/bin/../lib/gcc/arm-linux-gnueabihf/6.3.0/../../../../include/c++/6.3.0/bits/stl_vector.h:679:43
	addlo	r1, r2, r0, lsl #2
.Ltmp207:
	@DEBUG_VALUE: _M_erase_at_end:__pos <- %R1
	.loc	9 1437 26               @ /usr/bin/../lib/gcc/arm-linux-gnueabihf/6.3.0/../../../../include/c++/6.3.0/bits/stl_vector.h:1437:26
	strlo	r1, [r4, #44]
.Ltmp208:
.LBB11_19:                              @ %_ZNSt6vectorIfSaIfEE6resizeEj.exit.preheader
	.loc	1 283 2 discriminator 1 @ /root/Bela/projects/final_project_v6/render.cpp:283:2
	cmp	r0, #0
	beq	.LBB11_30
@ BB#20:                                @ %.lr.ph154
.Ltmp209:
	.loc	9 781 32                @ /usr/bin/../lib/gcc/arm-linux-gnueabihf/6.3.0/../../../../include/c++/6.3.0/bits/stl_vector.h:781:32
	ldr	r1, [r4, #40]
	mov	r3, #0
.Ltmp210:
	.loc	1 283 2 discriminator 1 @ /root/Bela/projects/final_project_v6/render.cpp:283:2
	cmp	r0, #3
	bls	.LBB11_25
@ BB#21:                                @ %min.iters.checked
	mov	r2, r0
	bfc	r2, #0, #2
	cmp	r2, #0
	beq	.LBB11_25
@ BB#22:                                @ %vector.body.preheader
.Ltmp211:
	.loc	1 285 32                @ /root/Bela/projects/final_project_v6/render.cpp:285:32
	vmov.f64	d20, #1.000000e+00
	adr	r3, .LCPI11_10
	.loc	1 285 37 is_stmt 0      @ /root/Bela/projects/final_project_v6/render.cpp:285:37
	vmov.i32	q9, #0x1
	vld1.64	{d16, d17}, [r3:128]
.Ltmp212:
	.loc	1 283 2 is_stmt 1 discriminator 1 @ /root/Bela/projects/final_project_v6/render.cpp:283:2
	vmov.i32	q11, #0x4
.Ltmp213:
	.loc	1 285 37                @ /root/Bela/projects/final_project_v6/render.cpp:285:37
	mov	r3, r2
.LBB11_23:                              @ %vector.body
                                        @ =>This Inner Loop Header: Depth=1
	vadd.i32	q0, q8, q9
.Ltmp214:
	.loc	9 781 41                @ /usr/bin/../lib/gcc/arm-linux-gnueabihf/6.3.0/../../../../include/c++/6.3.0/bits/stl_vector.h:781:41
	vmov.32	r7, d16[0]
.Ltmp215:
	.loc	1 283 2 discriminator 1 @ /root/Bela/projects/final_project_v6/render.cpp:283:2
	vadd.i32	q8, q8, q11
	subs	r3, r3, #4
.Ltmp216:
	.loc	1 285 34                @ /root/Bela/projects/final_project_v6/render.cpp:285:34
	vcvt.f64.u32	d21, s3
	vcvt.f64.u32	d24, s2
	.loc	1 285 32 is_stmt 0      @ /root/Bela/projects/final_project_v6/render.cpp:285:32
	vdiv.f64	d21, d20, d21
.Ltmp217:
	.loc	9 781 41 is_stmt 1      @ /usr/bin/../lib/gcc/arm-linux-gnueabihf/6.3.0/../../../../include/c++/6.3.0/bits/stl_vector.h:781:41
	add	r7, r1, r7, lsl #2
.Ltmp218:
	.loc	1 285 34                @ /root/Bela/projects/final_project_v6/render.cpp:285:34
	vcvt.f64.u32	d25, s1
	.loc	1 285 32 is_stmt 0      @ /root/Bela/projects/final_project_v6/render.cpp:285:32
	vdiv.f64	d24, d20, d24
	.loc	1 285 34                @ /root/Bela/projects/final_project_v6/render.cpp:285:34
	vcvt.f64.u32	d26, s0
	.loc	1 285 32                @ /root/Bela/projects/final_project_v6/render.cpp:285:32
	vdiv.f64	d25, d20, d25
	vdiv.f64	d26, d20, d26
	.loc	1 285 28                @ /root/Bela/projects/final_project_v6/render.cpp:285:28
	vcvt.f32.f64	s3, d21
	vcvt.f32.f64	s2, d24
	vcvt.f32.f64	s1, d25
	vcvt.f32.f64	s0, d26
	.loc	1 285 26                @ /root/Bela/projects/final_project_v6/render.cpp:285:26
	vst1.32	{d0, d1}, [r7]
.Ltmp219:
	.loc	1 283 2 is_stmt 1 discriminator 1 @ /root/Bela/projects/final_project_v6/render.cpp:283:2
	bne	.LBB11_23
@ BB#24:                                @ %middle.block
	mov	r3, r2
	cmp	r0, r2
	beq	.LBB11_27
.LBB11_25:                              @ %_ZNSt6vectorIfSaIfEE6resizeEj.exit.preheader216
.Ltmp220:
	.loc	1 285 32                @ /root/Bela/projects/final_project_v6/render.cpp:285:32
	vmov.f64	d16, #1.000000e+00
	.loc	1 285 37 is_stmt 0      @ /root/Bela/projects/final_project_v6/render.cpp:285:37
	add	r1, r1, r3, lsl #2
.LBB11_26:                              @ %_ZNSt6vectorIfSaIfEE6resizeEj.exit
                                        @ =>This Inner Loop Header: Depth=1
.Ltmp221:
	@DEBUG_VALUE: operator[]:__n <- %R3
	add	r3, r3, #1
.Ltmp222:
	@DEBUG_VALUE: n <- %R3
	.loc	1 283 2 is_stmt 1 discriminator 1 @ /root/Bela/projects/final_project_v6/render.cpp:283:2
	cmp	r3, r0
.Ltmp223:
	.loc	1 285 34                @ /root/Bela/projects/final_project_v6/render.cpp:285:34
	vmov	s0, r3
	vcvt.f64.u32	d17, s0
	.loc	1 285 32 is_stmt 0      @ /root/Bela/projects/final_project_v6/render.cpp:285:32
	vdiv.f64	d17, d16, d17
	.loc	1 285 28                @ /root/Bela/projects/final_project_v6/render.cpp:285:28
	vcvt.f32.f64	s0, d17
	.loc	1 285 26                @ /root/Bela/projects/final_project_v6/render.cpp:285:26
	vstmia	r1!, {s0}
	blo	.LBB11_26
.Ltmp224:
.LBB11_27:                              @ %_ZNSt6vectorIfSaIfEE6resizeEj.exit._crit_edge
	.loc	9 656 66 is_stmt 1      @ /usr/bin/../lib/gcc/arm-linux-gnueabihf/6.3.0/../../../../include/c++/6.3.0/bits/stl_vector.h:656:66
	ldr	r1, [r4, #52]
	.loc	9 656 40 is_stmt 0      @ /usr/bin/../lib/gcc/arm-linux-gnueabihf/6.3.0/../../../../include/c++/6.3.0/bits/stl_vector.h:656:40
	ldr	r2, [r4, #56]
	.loc	9 656 50                @ /usr/bin/../lib/gcc/arm-linux-gnueabihf/6.3.0/../../../../include/c++/6.3.0/bits/stl_vector.h:656:50
	sub	r3, r2, r1
	asr	r2, r3, #2
.Ltmp225:
	.loc	9 676 6 is_stmt 1       @ /usr/bin/../lib/gcc/arm-linux-gnueabihf/6.3.0/../../../../include/c++/6.3.0/bits/stl_vector.h:676:6
	cmp	r0, r3, asr #2
	bls	.LBB11_32
@ BB#28:
.Ltmp226:
	.loc	9 677 33                @ /usr/bin/../lib/gcc/arm-linux-gnueabihf/6.3.0/../../../../include/c++/6.3.0/bits/stl_vector.h:677:33
	sub	r1, r0, r2
	.loc	9 677 4 is_stmt 0 discriminator 1 @ /usr/bin/../lib/gcc/arm-linux-gnueabihf/6.3.0/../../../../include/c++/6.3.0/bits/stl_vector.h:677:4
	add	r0, r4, #52
	bl	_ZNSt6vectorIfSaIfEE17_M_default_appendEj
.Ltmp227:
	.loc	1 290 31 is_stmt 1 discriminator 1 @ /root/Bela/projects/final_project_v6/render.cpp:290:31
	ldr	r0, [r4, #8]
	b	.LBB11_34
.Ltmp228:
	.p2align	2
@ BB#29:
.LCPI11_6:
	.long	1114636288              @ float 60
.LBB11_30:                              @ %_ZNSt6vectorIfSaIfEE6resizeEj.exit._crit_edge.thread
.Ltmp229:
	.loc	9 656 66                @ /usr/bin/../lib/gcc/arm-linux-gnueabihf/6.3.0/../../../../include/c++/6.3.0/bits/stl_vector.h:656:66
	ldr	r1, [r4, #52]
	mov	r3, #0
	.loc	9 656 40 is_stmt 0      @ /usr/bin/../lib/gcc/arm-linux-gnueabihf/6.3.0/../../../../include/c++/6.3.0/bits/stl_vector.h:656:40
	ldr	r2, [r4, #56]
	.loc	9 656 50                @ /usr/bin/../lib/gcc/arm-linux-gnueabihf/6.3.0/../../../../include/c++/6.3.0/bits/stl_vector.h:656:50
	sub	r2, r2, r1
	asr	r2, r2, #2
	b	.LBB11_33
.Ltmp230:
	.p2align	2
@ BB#31:
.LCPI11_7:
	.long	981668463               @ float 0.00100000005
.LBB11_32:
	mov	r3, r0
.LBB11_33:
	.loc	9 678 11 is_stmt 1      @ /usr/bin/../lib/gcc/arm-linux-gnueabihf/6.3.0/../../../../include/c++/6.3.0/bits/stl_vector.h:678:11
	cmp	r3, r2
.Ltmp231:
	.loc	9 679 43                @ /usr/bin/../lib/gcc/arm-linux-gnueabihf/6.3.0/../../../../include/c++/6.3.0/bits/stl_vector.h:679:43
	addlo	r1, r1, r3, lsl #2
.Ltmp232:
	@DEBUG_VALUE: _M_erase_at_end:__pos <- %R1
	.loc	9 1437 26               @ /usr/bin/../lib/gcc/arm-linux-gnueabihf/6.3.0/../../../../include/c++/6.3.0/bits/stl_vector.h:1437:26
	strlo	r1, [r4, #56]
.Ltmp233:
.LBB11_34:                              @ %_ZNSt6vectorIfSaIfEE6resizeEj.exit76.preheader
	.loc	1 290 2 discriminator 1 @ /root/Bela/projects/final_project_v6/render.cpp:290:2
	cmp	r0, #0
	beq	.LBB11_44
@ BB#35:                                @ %.lr.ph151
.Ltmp234:
	.loc	9 781 32                @ /usr/bin/../lib/gcc/arm-linux-gnueabihf/6.3.0/../../../../include/c++/6.3.0/bits/stl_vector.h:781:32
	ldr	r1, [r4, #52]
	mov	r3, #0
.Ltmp235:
	.loc	1 290 2 discriminator 1 @ /root/Bela/projects/final_project_v6/render.cpp:290:2
	cmp	r0, #3
	bls	.LBB11_40
@ BB#36:                                @ %min.iters.checked194
	mov	r2, r0
	bfc	r2, #0, #2
	cmp	r2, #0
	beq	.LBB11_40
@ BB#37:                                @ %vector.body190.preheader
.Ltmp236:
	.loc	1 292 30                @ /root/Bela/projects/final_project_v6/render.cpp:292:30
	vmov.f64	d20, #1.000000e+00
	adr	r3, .LCPI11_10
	.loc	1 292 35 is_stmt 0      @ /root/Bela/projects/final_project_v6/render.cpp:292:35
	vmov.i32	q9, #0x1
	vld1.64	{d16, d17}, [r3:128]
.Ltmp237:
	.loc	1 290 2 is_stmt 1 discriminator 1 @ /root/Bela/projects/final_project_v6/render.cpp:290:2
	vmov.i32	q11, #0x4
.Ltmp238:
	.loc	1 292 35                @ /root/Bela/projects/final_project_v6/render.cpp:292:35
	mov	r3, r2
.LBB11_38:                              @ %vector.body190
                                        @ =>This Inner Loop Header: Depth=1
	vadd.i32	q0, q8, q9
.Ltmp239:
	.loc	9 781 41                @ /usr/bin/../lib/gcc/arm-linux-gnueabihf/6.3.0/../../../../include/c++/6.3.0/bits/stl_vector.h:781:41
	vmov.32	r7, d16[0]
.Ltmp240:
	.loc	1 290 2 discriminator 1 @ /root/Bela/projects/final_project_v6/render.cpp:290:2
	vadd.i32	q8, q8, q11
	subs	r3, r3, #4
.Ltmp241:
	.loc	1 292 32                @ /root/Bela/projects/final_project_v6/render.cpp:292:32
	vcvt.f64.u32	d21, s3
	vcvt.f64.u32	d24, s2
	.loc	1 292 30 is_stmt 0      @ /root/Bela/projects/final_project_v6/render.cpp:292:30
	vdiv.f64	d21, d20, d21
.Ltmp242:
	.loc	9 781 41 is_stmt 1      @ /usr/bin/../lib/gcc/arm-linux-gnueabihf/6.3.0/../../../../include/c++/6.3.0/bits/stl_vector.h:781:41
	add	r7, r1, r7, lsl #2
.Ltmp243:
	.loc	1 292 32                @ /root/Bela/projects/final_project_v6/render.cpp:292:32
	vcvt.f64.u32	d25, s1
	.loc	1 292 30 is_stmt 0      @ /root/Bela/projects/final_project_v6/render.cpp:292:30
	vdiv.f64	d24, d20, d24
	.loc	1 292 32                @ /root/Bela/projects/final_project_v6/render.cpp:292:32
	vcvt.f64.u32	d26, s0
	.loc	1 292 30                @ /root/Bela/projects/final_project_v6/render.cpp:292:30
	vdiv.f64	d25, d20, d25
	vdiv.f64	d26, d20, d26
	.loc	1 292 26                @ /root/Bela/projects/final_project_v6/render.cpp:292:26
	vcvt.f32.f64	s3, d21
	vcvt.f32.f64	s2, d24
	vcvt.f32.f64	s1, d25
	vcvt.f32.f64	s0, d26
	.loc	1 292 24                @ /root/Bela/projects/final_project_v6/render.cpp:292:24
	vst1.32	{d0, d1}, [r7]
.Ltmp244:
	.loc	1 290 2 is_stmt 1 discriminator 1 @ /root/Bela/projects/final_project_v6/render.cpp:290:2
	bne	.LBB11_38
@ BB#39:                                @ %middle.block191
	mov	r3, r2
	cmp	r0, r2
	beq	.LBB11_42
.LBB11_40:                              @ %_ZNSt6vectorIfSaIfEE6resizeEj.exit76.preheader215
.Ltmp245:
	.loc	1 292 30                @ /root/Bela/projects/final_project_v6/render.cpp:292:30
	vmov.f64	d16, #1.000000e+00
	.loc	1 292 35 is_stmt 0      @ /root/Bela/projects/final_project_v6/render.cpp:292:35
	add	r1, r1, r3, lsl #2
.LBB11_41:                              @ %_ZNSt6vectorIfSaIfEE6resizeEj.exit76
                                        @ =>This Inner Loop Header: Depth=1
.Ltmp246:
	@DEBUG_VALUE: operator[]:__n <- %R3
	add	r3, r3, #1
.Ltmp247:
	@DEBUG_VALUE: n <- %R3
	.loc	1 290 2 is_stmt 1 discriminator 1 @ /root/Bela/projects/final_project_v6/render.cpp:290:2
	cmp	r3, r0
.Ltmp248:
	.loc	1 292 32                @ /root/Bela/projects/final_project_v6/render.cpp:292:32
	vmov	s0, r3
	vcvt.f64.u32	d17, s0
	.loc	1 292 30 is_stmt 0      @ /root/Bela/projects/final_project_v6/render.cpp:292:30
	vdiv.f64	d17, d16, d17
	.loc	1 292 26                @ /root/Bela/projects/final_project_v6/render.cpp:292:26
	vcvt.f32.f64	s0, d17
	.loc	1 292 24                @ /root/Bela/projects/final_project_v6/render.cpp:292:24
	vstmia	r1!, {s0}
	blo	.LBB11_41
.Ltmp249:
.LBB11_42:                              @ %_ZNSt6vectorIfSaIfEE6resizeEj.exit76._crit_edge
	.loc	9 656 66 is_stmt 1      @ /usr/bin/../lib/gcc/arm-linux-gnueabihf/6.3.0/../../../../include/c++/6.3.0/bits/stl_vector.h:656:66
	ldrd	r2, r3, [r4, #64]
	.loc	9 656 50 is_stmt 0      @ /usr/bin/../lib/gcc/arm-linux-gnueabihf/6.3.0/../../../../include/c++/6.3.0/bits/stl_vector.h:656:50
	sub	r3, r3, r2
	asr	r1, r3, #2
.Ltmp250:
	.loc	9 676 6 is_stmt 1       @ /usr/bin/../lib/gcc/arm-linux-gnueabihf/6.3.0/../../../../include/c++/6.3.0/bits/stl_vector.h:676:6
	cmp	r0, r3, asr #2
	bls	.LBB11_48
@ BB#43:
.Ltmp251:
	.loc	9 677 33                @ /usr/bin/../lib/gcc/arm-linux-gnueabihf/6.3.0/../../../../include/c++/6.3.0/bits/stl_vector.h:677:33
	sub	r1, r0, r1
	.loc	9 677 4 is_stmt 0 discriminator 1 @ /usr/bin/../lib/gcc/arm-linux-gnueabihf/6.3.0/../../../../include/c++/6.3.0/bits/stl_vector.h:677:4
	add	r0, r4, #64
	bl	_ZNSt6vectorIfSaIfEE17_M_default_appendEj
.Ltmp252:
	.loc	1 297 31 is_stmt 1 discriminator 1 @ /root/Bela/projects/final_project_v6/render.cpp:297:31
	ldr	r0, [r4, #8]
	b	.LBB11_50
.Ltmp253:
.LBB11_44:                              @ %_ZNSt6vectorIfSaIfEE6resizeEj.exit76._crit_edge.thread
	.loc	9 656 66                @ /usr/bin/../lib/gcc/arm-linux-gnueabihf/6.3.0/../../../../include/c++/6.3.0/bits/stl_vector.h:656:66
	ldrd	r2, r3, [r4, #64]
	.loc	9 656 50 is_stmt 0      @ /usr/bin/../lib/gcc/arm-linux-gnueabihf/6.3.0/../../../../include/c++/6.3.0/bits/stl_vector.h:656:50
	sub	r1, r3, r2
	mov	r3, #0
	asr	r1, r1, #2
	b	.LBB11_49
.Ltmp254:
	.p2align	3
@ BB#45:
.LCPI11_8:
	.long	1992864825              @ double 0.70699999999999996
	.long	1072078782
	.p2align	3
@ BB#46:
.LCPI11_9:
	.long	0                       @ double 18000
	.long	1087476736
	.p2align	4
@ BB#47:
.LCPI11_10:
	.long	0                       @ 0x0
	.long	1                       @ 0x1
	.long	2                       @ 0x2
	.long	3                       @ 0x3
.LBB11_48:
	mov	r3, r0
.LBB11_49:
	.loc	9 678 11 is_stmt 1      @ /usr/bin/../lib/gcc/arm-linux-gnueabihf/6.3.0/../../../../include/c++/6.3.0/bits/stl_vector.h:678:11
	cmp	r3, r1
.Ltmp255:
	.loc	9 679 43                @ /usr/bin/../lib/gcc/arm-linux-gnueabihf/6.3.0/../../../../include/c++/6.3.0/bits/stl_vector.h:679:43
	addlo	r1, r2, r3, lsl #2
.Ltmp256:
	@DEBUG_VALUE: _M_erase_at_end:__pos <- %R1
	.loc	9 1437 26               @ /usr/bin/../lib/gcc/arm-linux-gnueabihf/6.3.0/../../../../include/c++/6.3.0/bits/stl_vector.h:1437:26
	strlo	r1, [r4, #68]
.Ltmp257:
.LBB11_50:                              @ %_ZNSt6vectorIfSaIfEE6resizeEj.exit81.preheader
	.loc	1 297 2 discriminator 1 @ /root/Bela/projects/final_project_v6/render.cpp:297:2
	cmp	r0, #0
	beq	.LBB11_55
@ BB#51:                                @ %.lr.ph149
.Ltmp258:
	.loc	1 299 32                @ /root/Bela/projects/final_project_v6/render.cpp:299:32
	vmov.f64	d16, #1.000000e+00
.Ltmp259:
	.loc	9 781 32                @ /usr/bin/../lib/gcc/arm-linux-gnueabihf/6.3.0/../../../../include/c++/6.3.0/bits/stl_vector.h:781:32
	ldr	r1, [r4, #64]
	mov	r2, #0
.Ltmp260:
.LBB11_52:                              @ %_ZNSt6vectorIfSaIfEE6resizeEj.exit81
                                        @ =>This Inner Loop Header: Depth=1
	@DEBUG_VALUE: operator[]:__n <- %R2
	.loc	1 299 41                @ /root/Bela/projects/final_project_v6/render.cpp:299:41
	add	r2, r2, #1
.Ltmp261:
	@DEBUG_VALUE: n <- %R2
	.loc	1 297 2 discriminator 1 @ /root/Bela/projects/final_project_v6/render.cpp:297:2
	cmp	r2, r0
.Ltmp262:
	.loc	1 299 38                @ /root/Bela/projects/final_project_v6/render.cpp:299:38
	vmov	s0, r2
	vcvt.f64.u32	d17, s0
	.loc	1 299 34 is_stmt 0      @ /root/Bela/projects/final_project_v6/render.cpp:299:34
	vmul.f64	d17, d17, d17
	.loc	1 299 32                @ /root/Bela/projects/final_project_v6/render.cpp:299:32
	vdiv.f64	d17, d16, d17
	.loc	1 299 28                @ /root/Bela/projects/final_project_v6/render.cpp:299:28
	vcvt.f32.f64	s0, d17
	.loc	1 299 26                @ /root/Bela/projects/final_project_v6/render.cpp:299:26
	vstmia	r1!, {s0}
	blo	.LBB11_52
.Ltmp263:
@ BB#53:                                @ %_ZNSt6vectorIfSaIfEE6resizeEj.exit81._crit_edge
	@DEBUG_VALUE: n <- %R2
	.loc	9 656 66 is_stmt 1      @ /usr/bin/../lib/gcc/arm-linux-gnueabihf/6.3.0/../../../../include/c++/6.3.0/bits/stl_vector.h:656:66
	ldr	r1, [r4, #76]
	.loc	9 656 40 is_stmt 0      @ /usr/bin/../lib/gcc/arm-linux-gnueabihf/6.3.0/../../../../include/c++/6.3.0/bits/stl_vector.h:656:40
	ldr	r2, [r4, #80]
.Ltmp264:
	.loc	9 656 50                @ /usr/bin/../lib/gcc/arm-linux-gnueabihf/6.3.0/../../../../include/c++/6.3.0/bits/stl_vector.h:656:50
	sub	r3, r2, r1
	asr	r2, r3, #2
.Ltmp265:
	.loc	9 676 6 is_stmt 1       @ /usr/bin/../lib/gcc/arm-linux-gnueabihf/6.3.0/../../../../include/c++/6.3.0/bits/stl_vector.h:676:6
	cmp	r0, r3, asr #2
	bls	.LBB11_56
@ BB#54:
.Ltmp266:
	.loc	9 677 33                @ /usr/bin/../lib/gcc/arm-linux-gnueabihf/6.3.0/../../../../include/c++/6.3.0/bits/stl_vector.h:677:33
	sub	r1, r0, r2
	.loc	9 677 4 is_stmt 0 discriminator 1 @ /usr/bin/../lib/gcc/arm-linux-gnueabihf/6.3.0/../../../../include/c++/6.3.0/bits/stl_vector.h:677:4
	add	r0, r4, #76
	bl	_ZNSt6vectorIfSaIfEE17_M_default_appendEj
.Ltmp267:
	.loc	1 305 31 is_stmt 1 discriminator 1 @ /root/Bela/projects/final_project_v6/render.cpp:305:31
	ldr	r0, [r4, #8]
.Ltmp268:
	.loc	9 781 32                @ /usr/bin/../lib/gcc/arm-linux-gnueabihf/6.3.0/../../../../include/c++/6.3.0/bits/stl_vector.h:781:32
	ldr	r1, [r4, #76]
	b	.LBB11_58
.Ltmp269:
.LBB11_55:                              @ %_ZNSt6vectorIfSaIfEE6resizeEj.exit81._crit_edge.thread
	.loc	9 656 66                @ /usr/bin/../lib/gcc/arm-linux-gnueabihf/6.3.0/../../../../include/c++/6.3.0/bits/stl_vector.h:656:66
	ldr	r1, [r4, #76]
	mov	r3, #0
	.loc	9 656 40 is_stmt 0      @ /usr/bin/../lib/gcc/arm-linux-gnueabihf/6.3.0/../../../../include/c++/6.3.0/bits/stl_vector.h:656:40
	ldr	r2, [r4, #80]
	.loc	9 656 50                @ /usr/bin/../lib/gcc/arm-linux-gnueabihf/6.3.0/../../../../include/c++/6.3.0/bits/stl_vector.h:656:50
	sub	r2, r2, r1
	asr	r2, r2, #2
	b	.LBB11_57
.Ltmp270:
.LBB11_56:
	mov	r3, r0
.LBB11_57:
	.loc	9 678 11 is_stmt 1      @ /usr/bin/../lib/gcc/arm-linux-gnueabihf/6.3.0/../../../../include/c++/6.3.0/bits/stl_vector.h:678:11
	cmp	r3, r2
.Ltmp271:
	.loc	9 679 43                @ /usr/bin/../lib/gcc/arm-linux-gnueabihf/6.3.0/../../../../include/c++/6.3.0/bits/stl_vector.h:679:43
	addlo	r2, r1, r3, lsl #2
.Ltmp272:
	@DEBUG_VALUE: _M_erase_at_end:__pos <- %R2
	.loc	9 1437 26               @ /usr/bin/../lib/gcc/arm-linux-gnueabihf/6.3.0/../../../../include/c++/6.3.0/bits/stl_vector.h:1437:26
	strlo	r2, [r4, #80]
.Ltmp273:
.LBB11_58:                              @ %_ZNSt6vectorIfSaIfEE6resizeEj.exit82
	@DEBUG_VALUE: operator[]:__n <- 0
	.loc	1 304 21                @ /root/Bela/projects/final_project_v6/render.cpp:304:21
	mov	r2, #1065353216
.Ltmp274:
	@DEBUG_VALUE: n <- 1
	.loc	1 305 2 discriminator 1 @ /root/Bela/projects/final_project_v6/render.cpp:305:2
	cmp	r0, #2
.Ltmp275:
	.loc	1 304 21                @ /root/Bela/projects/final_project_v6/render.cpp:304:21
	str	r2, [r1]
	blo	.LBB11_60
@ BB#59:                                @ %.lr.ph
.Ltmp276:
	.loc	1 305 2 discriminator 1 @ /root/Bela/projects/final_project_v6/render.cpp:305:2
	mvn	r2, #3
	add	r2, r2, r0, lsl #2
	add	r0, r1, #4
.Ltmp277:
	.loc	1 307 22                @ /root/Bela/projects/final_project_v6/render.cpp:307:22
	mov	r1, #0
	bl	memset
.Ltmp278:
.LBB11_60:                              @ %._crit_edge
	.loc	9 656 66                @ /usr/bin/../lib/gcc/arm-linux-gnueabihf/6.3.0/../../../../include/c++/6.3.0/bits/stl_vector.h:656:66
	ldrd	r8, r9, [r4, #40]
	mov	r5, #0
.Ltmp279:
	.loc	9 170 9 discriminator 3 @ /usr/bin/../lib/gcc/arm-linux-gnueabihf/6.3.0/../../../../include/c++/6.3.0/bits/stl_vector.h:170:9
	mov	r6, #0
.Ltmp280:
	.loc	9 656 50                @ /usr/bin/../lib/gcc/arm-linux-gnueabihf/6.3.0/../../../../include/c++/6.3.0/bits/stl_vector.h:656:50
	sub	r0, r9, r8
	asr	r7, r0, #2
.Ltmp281:
	@DEBUG_VALUE: _M_allocate:__n <- %R7
	@DEBUG_VALUE: _M_create_storage:__n <- %R7
	@DEBUG_VALUE: _Vector_base:__n <- %R7
	@DEBUG_VALUE: allocate:__n <- %R7
	@DEBUG_VALUE: allocate:__n <- %R7
	.loc	9 170 9                 @ /usr/bin/../lib/gcc/arm-linux-gnueabihf/6.3.0/../../../../include/c++/6.3.0/bits/stl_vector.h:170:9
	cmp	r5, r0, asr #2
	beq	.LBB11_63
.Ltmp282:
@ BB#61:
	@DEBUG_VALUE: allocate:__n <- %R7
	@DEBUG_VALUE: allocate:__n <- %R7
	@DEBUG_VALUE: _Vector_base:__n <- %R7
	@DEBUG_VALUE: _M_create_storage:__n <- %R7
	@DEBUG_VALUE: _M_allocate:__n <- %R7
	.loc	5 101 6                 @ /usr/bin/../lib/gcc/arm-linux-gnueabihf/6.3.0/../../../../include/c++/6.3.0/ext/new_allocator.h:101:6
	cmp	r7, #1073741824
	bhs	.LBB11_125
.Ltmp283:
@ BB#62:                                @ %_ZNSt16allocator_traitsISaIfEE8allocateERS0_j.exit.i.i.i.i
	@DEBUG_VALUE: allocate:__n <- %R7
	@DEBUG_VALUE: allocate:__n <- %R7
	@DEBUG_VALUE: _Vector_base:__n <- %R7
	@DEBUG_VALUE: _M_create_storage:__n <- %R7
	@DEBUG_VALUE: _M_allocate:__n <- %R7
	.loc	5 104 27                @ /usr/bin/../lib/gcc/arm-linux-gnueabihf/6.3.0/../../../../include/c++/6.3.0/ext/new_allocator.h:104:27
	bl	_Znwj
	mov	r6, r0
.Ltmp284:
	.loc	1 234 55                @ /root/Bela/projects/final_project_v6/render.cpp:234:55
	movw	r0, :lower16:.L_MergedGlobals.4
	movt	r0, :upper16:.L_MergedGlobals.4
.Ltmp285:
	.loc	9 558 45                @ /usr/bin/../lib/gcc/arm-linux-gnueabihf/6.3.0/../../../../include/c++/6.3.0/bits/stl_vector.h:558:45
	ldrd	r8, r9, [r0, #40]
.Ltmp286:
.LBB11_63:
	@DEBUG_VALUE: allocate:__n <- %R7
	@DEBUG_VALUE: allocate:__n <- %R7
	@DEBUG_VALUE: _Vector_base:__n <- %R7
	@DEBUG_VALUE: _M_create_storage:__n <- %R7
	@DEBUG_VALUE: _M_allocate:__n <- %R7
	@DEBUG_VALUE: __uninitialized_copy_a<__gnu_cxx::__normal_iterator<const float *, std::vector<float, std::allocator<float> > >, float *, float>:__result <- %R6
	@DEBUG_VALUE: uninitialized_copy<__gnu_cxx::__normal_iterator<const float *, std::vector<float, std::allocator<float> > >, float *>:__assignable <- 1
	@DEBUG_VALUE: __copy_move_a<false, const float *, float *>:__simple <- 1
	.file	58 "/usr/bin/../lib/gcc/arm-linux-gnueabihf/6.3.0/../../../../include/c++/6.3.0/bits" "stl_algobase.h"
	.loc	58 366 34               @ /usr/bin/../lib/gcc/arm-linux-gnueabihf/6.3.0/../../../../include/c++/6.3.0/bits/stl_algobase.h:366:34
	sub	r2, r9, r8
.Ltmp287:
	.loc	9 187 59                @ /usr/bin/../lib/gcc/arm-linux-gnueabihf/6.3.0/../../../../include/c++/6.3.0/bits/stl_vector.h:187:59
	add	r7, r6, r7, lsl #2
.Ltmp288:
	.loc	58 366 34               @ /usr/bin/../lib/gcc/arm-linux-gnueabihf/6.3.0/../../../../include/c++/6.3.0/bits/stl_algobase.h:366:34
	asr	r9, r2, #2
.Ltmp289:
	@DEBUG_VALUE: __copy_m<float>:_Num <- %R9
	.loc	58 367 8                @ /usr/bin/../lib/gcc/arm-linux-gnueabihf/6.3.0/../../../../include/c++/6.3.0/bits/stl_algobase.h:367:8
	cmp	r5, r2, asr #2
	beq	.LBB11_65
.Ltmp290:
@ BB#64:
	@DEBUG_VALUE: __copy_m<float>:_Num <- %R9
	@DEBUG_VALUE: __uninitialized_copy_a<__gnu_cxx::__normal_iterator<const float *, std::vector<float, std::allocator<float> > >, float *, float>:__result <- %R6
	.loc	58 368 6                @ /usr/bin/../lib/gcc/arm-linux-gnueabihf/6.3.0/../../../../include/c++/6.3.0/bits/stl_algobase.h:368:6
	mov	r0, r6
	mov	r1, r8
	bl	memmove
.Ltmp291:
.LBB11_65:                              @ %_ZNSt6vectorIfSaIfEEC2ERKS1_.exit
	@DEBUG_VALUE: __copy_m<float>:_Num <- %R9
	@DEBUG_VALUE: __uninitialized_copy_a<__gnu_cxx::__normal_iterator<const float *, std::vector<float, std::allocator<float> > >, float *, float>:__result <- %R6
	@DEBUG_VALUE: operator=:__move_storage <- 1
	.file	59 "/usr/bin/../lib/gcc/arm-linux-gnueabihf/6.3.0/../../../../include/c++/6.3.0/bits" "move.h"
	.loc	59 190 19               @ /usr/bin/../lib/gcc/arm-linux-gnueabihf/6.3.0/../../../../include/c++/6.3.0/bits/move.h:190:19
	movw	r8, :lower16:gSawtooth
.Ltmp292:
	.loc	58 369 20               @ /usr/bin/../lib/gcc/arm-linux-gnueabihf/6.3.0/../../../../include/c++/6.3.0/bits/stl_algobase.h:369:20
	add	r1, r6, r9, lsl #2
.Ltmp293:
	.loc	59 190 19               @ /usr/bin/../lib/gcc/arm-linux-gnueabihf/6.3.0/../../../../include/c++/6.3.0/bits/move.h:190:19
	movt	r8, :upper16:gSawtooth
	ldr	r0, [r8]
.Ltmp294:
	@DEBUG_VALUE: _M_deallocate:__p <- %R0
	@DEBUG_VALUE: deallocate:__p <- %R0
	@DEBUG_VALUE: deallocate:__p <- %R0
	.loc	59 191 11               @ /usr/bin/../lib/gcc/arm-linux-gnueabihf/6.3.0/../../../../include/c++/6.3.0/bits/move.h:191:11
	str	r6, [r8]
.Ltmp295:
	.loc	59 191 11 is_stmt 0     @ /usr/bin/../lib/gcc/arm-linux-gnueabihf/6.3.0/../../../../include/c++/6.3.0/bits/move.h:191:11
	stmib	r8, {r1, r7}
.Ltmp296:
	.loc	9 177 6 is_stmt 1       @ /usr/bin/../lib/gcc/arm-linux-gnueabihf/6.3.0/../../../../include/c++/6.3.0/bits/stl_vector.h:177:6
	cmp	r0, #0
.Ltmp297:
	@DEBUG_VALUE: operator=:this <- %R8
	beq	.LBB11_67
.Ltmp298:
@ BB#66:
	@DEBUG_VALUE: operator=:this <- %R8
	@DEBUG_VALUE: deallocate:__p <- %R0
	@DEBUG_VALUE: deallocate:__p <- %R0
	@DEBUG_VALUE: _M_deallocate:__p <- %R0
	@DEBUG_VALUE: __copy_m<float>:_Num <- %R9
	@DEBUG_VALUE: __uninitialized_copy_a<__gnu_cxx::__normal_iterator<const float *, std::vector<float, std::allocator<float> > >, float *, float>:__result <- %R6
	.loc	5 110 9                 @ /usr/bin/../lib/gcc/arm-linux-gnueabihf/6.3.0/../../../../include/c++/6.3.0/ext/new_allocator.h:110:9
	bl	_ZdlPv
.Ltmp299:
.LBB11_67:                              @ %_ZN11synthTimbreD2Ev.exit
	@DEBUG_VALUE: operator=:this <- %R8
	@DEBUG_VALUE: __copy_m<float>:_Num <- %R9
	@DEBUG_VALUE: __uninitialized_copy_a<__gnu_cxx::__normal_iterator<const float *, std::vector<float, std::allocator<float> > >, float *, float>:__result <- %R6
	.loc	1 234 55                @ /root/Bela/projects/final_project_v6/render.cpp:234:55
	movw	r0, :lower16:.L_MergedGlobals.4
	mov	r9, #0
.Ltmp300:
	@DEBUG_VALUE: _M_deallocate:__p <- %R9
	movt	r0, :upper16:.L_MergedGlobals.4
.Ltmp301:
	.loc	9 170 9 discriminator 3 @ /usr/bin/../lib/gcc/arm-linux-gnueabihf/6.3.0/../../../../include/c++/6.3.0/bits/stl_vector.h:170:9
	mov	r6, #0
.Ltmp302:
	.loc	9 656 66                @ /usr/bin/../lib/gcc/arm-linux-gnueabihf/6.3.0/../../../../include/c++/6.3.0/bits/stl_vector.h:656:66
	ldr	r1, [r0, #52]
	.loc	9 656 40 is_stmt 0      @ /usr/bin/../lib/gcc/arm-linux-gnueabihf/6.3.0/../../../../include/c++/6.3.0/bits/stl_vector.h:656:40
	ldr	r2, [r0, #56]
.Ltmp303:
	.loc	1 175 8 is_stmt 1       @ /root/Bela/projects/final_project_v6/render.cpp:175:8
	strb	r9, [r8, #12]
.Ltmp304:
	.loc	9 656 50                @ /usr/bin/../lib/gcc/arm-linux-gnueabihf/6.3.0/../../../../include/c++/6.3.0/bits/stl_vector.h:656:50
	sub	r0, r2, r1
	asr	r7, r0, #2
.Ltmp305:
	@DEBUG_VALUE: _Vector_base:__n <- %R7
	@DEBUG_VALUE: _M_allocate:__n <- %R7
	@DEBUG_VALUE: _M_create_storage:__n <- %R7
	@DEBUG_VALUE: allocate:__n <- %R7
	@DEBUG_VALUE: allocate:__n <- %R7
	.loc	9 170 9                 @ /usr/bin/../lib/gcc/arm-linux-gnueabihf/6.3.0/../../../../include/c++/6.3.0/bits/stl_vector.h:170:9
	cmp	r9, r0, asr #2
	beq	.LBB11_70
.Ltmp306:
@ BB#68:
	@DEBUG_VALUE: allocate:__n <- %R7
	@DEBUG_VALUE: allocate:__n <- %R7
	@DEBUG_VALUE: _M_create_storage:__n <- %R7
	@DEBUG_VALUE: _M_allocate:__n <- %R7
	@DEBUG_VALUE: _Vector_base:__n <- %R7
	@DEBUG_VALUE: _M_deallocate:__p <- %R9
	@DEBUG_VALUE: operator=:this <- %R8
	.loc	5 101 6                 @ /usr/bin/../lib/gcc/arm-linux-gnueabihf/6.3.0/../../../../include/c++/6.3.0/ext/new_allocator.h:101:6
	cmp	r7, #1073741824
	bhs	.LBB11_125
.Ltmp307:
@ BB#69:                                @ %_ZNSt16allocator_traitsISaIfEE8allocateERS0_j.exit.i.i.i.i88
	@DEBUG_VALUE: allocate:__n <- %R7
	@DEBUG_VALUE: allocate:__n <- %R7
	@DEBUG_VALUE: _M_create_storage:__n <- %R7
	@DEBUG_VALUE: _M_allocate:__n <- %R7
	@DEBUG_VALUE: _Vector_base:__n <- %R7
	@DEBUG_VALUE: _M_deallocate:__p <- %R9
	@DEBUG_VALUE: operator=:this <- %R8
	.loc	5 104 27                @ /usr/bin/../lib/gcc/arm-linux-gnueabihf/6.3.0/../../../../include/c++/6.3.0/ext/new_allocator.h:104:27
	bl	_Znwj
	mov	r6, r0
.Ltmp308:
	.loc	1 234 55                @ /root/Bela/projects/final_project_v6/render.cpp:234:55
	movw	r0, :lower16:.L_MergedGlobals.4
	movt	r0, :upper16:.L_MergedGlobals.4
.Ltmp309:
	.loc	9 558 45                @ /usr/bin/../lib/gcc/arm-linux-gnueabihf/6.3.0/../../../../include/c++/6.3.0/bits/stl_vector.h:558:45
	ldr	r1, [r0, #52]
.Ltmp310:
	.loc	9 576 45                @ /usr/bin/../lib/gcc/arm-linux-gnueabihf/6.3.0/../../../../include/c++/6.3.0/bits/stl_vector.h:576:45
	ldr	r2, [r0, #56]
.Ltmp311:
.LBB11_70:
	@DEBUG_VALUE: allocate:__n <- %R7
	@DEBUG_VALUE: allocate:__n <- %R7
	@DEBUG_VALUE: _M_create_storage:__n <- %R7
	@DEBUG_VALUE: _M_allocate:__n <- %R7
	@DEBUG_VALUE: _Vector_base:__n <- %R7
	@DEBUG_VALUE: _M_deallocate:__p <- %R9
	@DEBUG_VALUE: operator=:this <- %R8
	@DEBUG_VALUE: __uninitialized_copy_a<__gnu_cxx::__normal_iterator<const float *, std::vector<float, std::allocator<float> > >, float *, float>:__result <- %R6
	@DEBUG_VALUE: uninitialized_copy<__gnu_cxx::__normal_iterator<const float *, std::vector<float, std::allocator<float> > >, float *>:__assignable <- 1
	@DEBUG_VALUE: __copy_move_a<false, const float *, float *>:__simple <- 1
	.loc	58 366 34               @ /usr/bin/../lib/gcc/arm-linux-gnueabihf/6.3.0/../../../../include/c++/6.3.0/bits/stl_algobase.h:366:34
	sub	r2, r2, r1
.Ltmp312:
	.loc	9 187 59                @ /usr/bin/../lib/gcc/arm-linux-gnueabihf/6.3.0/../../../../include/c++/6.3.0/bits/stl_vector.h:187:59
	add	r7, r6, r7, lsl #2
.Ltmp313:
	.loc	58 366 34               @ /usr/bin/../lib/gcc/arm-linux-gnueabihf/6.3.0/../../../../include/c++/6.3.0/bits/stl_algobase.h:366:34
	asr	r5, r2, #2
.Ltmp314:
	@DEBUG_VALUE: __copy_m<float>:_Num <- %R5
	.loc	58 367 8                @ /usr/bin/../lib/gcc/arm-linux-gnueabihf/6.3.0/../../../../include/c++/6.3.0/bits/stl_algobase.h:367:8
	cmp	r9, r2, asr #2
	beq	.LBB11_72
.Ltmp315:
@ BB#71:
	@DEBUG_VALUE: __copy_m<float>:_Num <- %R5
	@DEBUG_VALUE: __uninitialized_copy_a<__gnu_cxx::__normal_iterator<const float *, std::vector<float, std::allocator<float> > >, float *, float>:__result <- %R6
	@DEBUG_VALUE: _M_deallocate:__p <- %R9
	@DEBUG_VALUE: operator=:this <- %R8
	.loc	58 368 6                @ /usr/bin/../lib/gcc/arm-linux-gnueabihf/6.3.0/../../../../include/c++/6.3.0/bits/stl_algobase.h:368:6
	mov	r0, r6
	bl	memmove
.Ltmp316:
.LBB11_72:                              @ %_ZNSt6vectorIfSaIfEEC2ERKS1_.exit89
	@DEBUG_VALUE: __copy_m<float>:_Num <- %R5
	@DEBUG_VALUE: __uninitialized_copy_a<__gnu_cxx::__normal_iterator<const float *, std::vector<float, std::allocator<float> > >, float *, float>:__result <- %R6
	@DEBUG_VALUE: _M_deallocate:__p <- %R9
	@DEBUG_VALUE: operator=:this <- %R8
	@DEBUG_VALUE: operator=:__move_storage <- 1
	.loc	59 190 19               @ /usr/bin/../lib/gcc/arm-linux-gnueabihf/6.3.0/../../../../include/c++/6.3.0/bits/move.h:190:19
	movw	r2, :lower16:gSquare
.Ltmp317:
	.loc	1 234 55                @ /root/Bela/projects/final_project_v6/render.cpp:234:55
	movw	r4, :lower16:.L_MergedGlobals.4
.Ltmp318:
	.loc	59 190 19               @ /usr/bin/../lib/gcc/arm-linux-gnueabihf/6.3.0/../../../../include/c++/6.3.0/bits/move.h:190:19
	movt	r2, :upper16:gSquare
.Ltmp319:
	.loc	58 369 20               @ /usr/bin/../lib/gcc/arm-linux-gnueabihf/6.3.0/../../../../include/c++/6.3.0/bits/stl_algobase.h:369:20
	add	r1, r6, r5, lsl #2
.Ltmp320:
	.loc	59 190 19               @ /usr/bin/../lib/gcc/arm-linux-gnueabihf/6.3.0/../../../../include/c++/6.3.0/bits/move.h:190:19
	ldr	r0, [r2]
.Ltmp321:
	@DEBUG_VALUE: _M_deallocate:__p <- %R0
	@DEBUG_VALUE: deallocate:__p <- %R0
	@DEBUG_VALUE: deallocate:__p <- %R0
	.loc	1 234 55                @ /root/Bela/projects/final_project_v6/render.cpp:234:55
	movt	r4, :upper16:.L_MergedGlobals.4
.Ltmp322:
	.loc	59 191 11               @ /usr/bin/../lib/gcc/arm-linux-gnueabihf/6.3.0/../../../../include/c++/6.3.0/bits/move.h:191:11
	str	r6, [r2]
.Ltmp323:
	.loc	59 191 11 is_stmt 0     @ /usr/bin/../lib/gcc/arm-linux-gnueabihf/6.3.0/../../../../include/c++/6.3.0/bits/move.h:191:11
	stmib	r2, {r1, r7}
.Ltmp324:
	.loc	9 177 6 is_stmt 1       @ /usr/bin/../lib/gcc/arm-linux-gnueabihf/6.3.0/../../../../include/c++/6.3.0/bits/stl_vector.h:177:6
	cmp	r0, #0
.Ltmp325:
	@DEBUG_VALUE: operator=:this <- undef
	beq	.LBB11_74
.Ltmp326:
@ BB#73:
	@DEBUG_VALUE: deallocate:__p <- %R0
	@DEBUG_VALUE: deallocate:__p <- %R0
	@DEBUG_VALUE: _M_deallocate:__p <- %R0
	@DEBUG_VALUE: __copy_m<float>:_Num <- %R5
	@DEBUG_VALUE: __uninitialized_copy_a<__gnu_cxx::__normal_iterator<const float *, std::vector<float, std::allocator<float> > >, float *, float>:__result <- %R6
	@DEBUG_VALUE: _M_deallocate:__p <- %R9
	@DEBUG_VALUE: operator=:this <- %R8
	.loc	5 110 9                 @ /usr/bin/../lib/gcc/arm-linux-gnueabihf/6.3.0/../../../../include/c++/6.3.0/ext/new_allocator.h:110:9
	bl	_ZdlPv
.Ltmp327:
.LBB11_74:                              @ %_ZN11synthTimbreD2Ev.exit91
	@DEBUG_VALUE: __copy_m<float>:_Num <- %R5
	@DEBUG_VALUE: __uninitialized_copy_a<__gnu_cxx::__normal_iterator<const float *, std::vector<float, std::allocator<float> > >, float *, float>:__result <- %R6
	@DEBUG_VALUE: _M_deallocate:__p <- %R9
	@DEBUG_VALUE: operator=:this <- %R8
	.loc	59 190 19               @ /usr/bin/../lib/gcc/arm-linux-gnueabihf/6.3.0/../../../../include/c++/6.3.0/bits/move.h:190:19
	movw	r1, :lower16:gSquare
.Ltmp328:
	.loc	1 175 8                 @ /root/Bela/projects/final_project_v6/render.cpp:175:8
	mov	r0, #1
.Ltmp329:
	.loc	59 190 19               @ /usr/bin/../lib/gcc/arm-linux-gnueabihf/6.3.0/../../../../include/c++/6.3.0/bits/move.h:190:19
	movt	r1, :upper16:gSquare
	mov	r9, #0
.Ltmp330:
	@DEBUG_VALUE: _M_deallocate:__p <- %R9
	@DEBUG_VALUE: _M_allocate:__n <- %R7
	@DEBUG_VALUE: _M_create_storage:__n <- %R7
	.loc	1 175 8                 @ /root/Bela/projects/final_project_v6/render.cpp:175:8
	strb	r0, [r1, #12]
.Ltmp331:
	.loc	9 170 9 discriminator 3 @ /usr/bin/../lib/gcc/arm-linux-gnueabihf/6.3.0/../../../../include/c++/6.3.0/bits/stl_vector.h:170:9
	mov	r6, #0
.Ltmp332:
	.loc	9 656 66                @ /usr/bin/../lib/gcc/arm-linux-gnueabihf/6.3.0/../../../../include/c++/6.3.0/bits/stl_vector.h:656:66
	ldr	r1, [r4, #64]
	ldr	r3, [r4, #68]
	.loc	9 656 50 is_stmt 0      @ /usr/bin/../lib/gcc/arm-linux-gnueabihf/6.3.0/../../../../include/c++/6.3.0/bits/stl_vector.h:656:50
	sub	r0, r3, r1
	asr	r7, r0, #2
.Ltmp333:
	@DEBUG_VALUE: _Vector_base:__n <- %R7
	@DEBUG_VALUE: allocate:__n <- %R7
	@DEBUG_VALUE: allocate:__n <- %R7
	.loc	9 170 9 is_stmt 1       @ /usr/bin/../lib/gcc/arm-linux-gnueabihf/6.3.0/../../../../include/c++/6.3.0/bits/stl_vector.h:170:9
	cmp	r9, r0, asr #2
	beq	.LBB11_77
.Ltmp334:
@ BB#75:
	@DEBUG_VALUE: allocate:__n <- %R7
	@DEBUG_VALUE: allocate:__n <- %R7
	@DEBUG_VALUE: _Vector_base:__n <- %R7
	@DEBUG_VALUE: _M_deallocate:__p <- %R9
	@DEBUG_VALUE: __copy_m<float>:_Num <- %R5
	@DEBUG_VALUE: operator=:this <- %R8
	.loc	5 101 6                 @ /usr/bin/../lib/gcc/arm-linux-gnueabihf/6.3.0/../../../../include/c++/6.3.0/ext/new_allocator.h:101:6
	cmp	r7, #1073741824
	bhs	.LBB11_125
.Ltmp335:
@ BB#76:                                @ %_ZNSt16allocator_traitsISaIfEE8allocateERS0_j.exit.i.i.i.i93
	@DEBUG_VALUE: allocate:__n <- %R7
	@DEBUG_VALUE: allocate:__n <- %R7
	@DEBUG_VALUE: _Vector_base:__n <- %R7
	@DEBUG_VALUE: _M_deallocate:__p <- %R9
	@DEBUG_VALUE: __copy_m<float>:_Num <- %R5
	@DEBUG_VALUE: operator=:this <- %R8
	.loc	5 104 27                @ /usr/bin/../lib/gcc/arm-linux-gnueabihf/6.3.0/../../../../include/c++/6.3.0/ext/new_allocator.h:104:27
	bl	_Znwj
	mov	r6, r0
.Ltmp336:
	.loc	1 234 55                @ /root/Bela/projects/final_project_v6/render.cpp:234:55
	movw	r0, :lower16:.L_MergedGlobals.4
	movt	r0, :upper16:.L_MergedGlobals.4
.Ltmp337:
	.loc	9 558 45                @ /usr/bin/../lib/gcc/arm-linux-gnueabihf/6.3.0/../../../../include/c++/6.3.0/bits/stl_vector.h:558:45
	ldr	r1, [r0, #64]
	ldr	r3, [r0, #68]
.Ltmp338:
.LBB11_77:
	@DEBUG_VALUE: allocate:__n <- %R7
	@DEBUG_VALUE: allocate:__n <- %R7
	@DEBUG_VALUE: _Vector_base:__n <- %R7
	@DEBUG_VALUE: _M_deallocate:__p <- %R9
	@DEBUG_VALUE: __copy_m<float>:_Num <- %R5
	@DEBUG_VALUE: operator=:this <- %R8
	@DEBUG_VALUE: __uninitialized_copy_a<__gnu_cxx::__normal_iterator<const float *, std::vector<float, std::allocator<float> > >, float *, float>:__result <- %R6
	@DEBUG_VALUE: uninitialized_copy<__gnu_cxx::__normal_iterator<const float *, std::vector<float, std::allocator<float> > >, float *>:__assignable <- 1
	@DEBUG_VALUE: __copy_move_a<false, const float *, float *>:__simple <- 1
	.loc	58 366 34               @ /usr/bin/../lib/gcc/arm-linux-gnueabihf/6.3.0/../../../../include/c++/6.3.0/bits/stl_algobase.h:366:34
	sub	r2, r3, r1
.Ltmp339:
	.loc	9 187 59                @ /usr/bin/../lib/gcc/arm-linux-gnueabihf/6.3.0/../../../../include/c++/6.3.0/bits/stl_vector.h:187:59
	add	r7, r6, r7, lsl #2
.Ltmp340:
	.loc	58 366 34               @ /usr/bin/../lib/gcc/arm-linux-gnueabihf/6.3.0/../../../../include/c++/6.3.0/bits/stl_algobase.h:366:34
	asr	r5, r2, #2
.Ltmp341:
	@DEBUG_VALUE: __copy_m<float>:_Num <- %R5
	.loc	58 367 8                @ /usr/bin/../lib/gcc/arm-linux-gnueabihf/6.3.0/../../../../include/c++/6.3.0/bits/stl_algobase.h:367:8
	cmp	r9, r2, asr #2
	beq	.LBB11_79
.Ltmp342:
@ BB#78:
	@DEBUG_VALUE: __copy_m<float>:_Num <- %R5
	@DEBUG_VALUE: __uninitialized_copy_a<__gnu_cxx::__normal_iterator<const float *, std::vector<float, std::allocator<float> > >, float *, float>:__result <- %R6
	@DEBUG_VALUE: _M_deallocate:__p <- %R9
	@DEBUG_VALUE: operator=:this <- %R8
	.loc	58 368 6                @ /usr/bin/../lib/gcc/arm-linux-gnueabihf/6.3.0/../../../../include/c++/6.3.0/bits/stl_algobase.h:368:6
	mov	r0, r6
	bl	memmove
.Ltmp343:
.LBB11_79:                              @ %_ZNSt6vectorIfSaIfEEC2ERKS1_.exit94
	@DEBUG_VALUE: __copy_m<float>:_Num <- %R5
	@DEBUG_VALUE: __uninitialized_copy_a<__gnu_cxx::__normal_iterator<const float *, std::vector<float, std::allocator<float> > >, float *, float>:__result <- %R6
	@DEBUG_VALUE: _M_deallocate:__p <- %R9
	@DEBUG_VALUE: operator=:this <- %R8
	@DEBUG_VALUE: operator=:__move_storage <- 1
	.loc	59 190 19               @ /usr/bin/../lib/gcc/arm-linux-gnueabihf/6.3.0/../../../../include/c++/6.3.0/bits/move.h:190:19
	movw	r2, :lower16:gTriangle
.Ltmp344:
	.loc	1 234 55                @ /root/Bela/projects/final_project_v6/render.cpp:234:55
	movw	r4, :lower16:.L_MergedGlobals.4
.Ltmp345:
	.loc	59 190 19               @ /usr/bin/../lib/gcc/arm-linux-gnueabihf/6.3.0/../../../../include/c++/6.3.0/bits/move.h:190:19
	movt	r2, :upper16:gTriangle
.Ltmp346:
	.loc	58 369 20               @ /usr/bin/../lib/gcc/arm-linux-gnueabihf/6.3.0/../../../../include/c++/6.3.0/bits/stl_algobase.h:369:20
	add	r1, r6, r5, lsl #2
.Ltmp347:
	.loc	59 190 19               @ /usr/bin/../lib/gcc/arm-linux-gnueabihf/6.3.0/../../../../include/c++/6.3.0/bits/move.h:190:19
	ldr	r0, [r2]
.Ltmp348:
	@DEBUG_VALUE: _M_deallocate:__p <- %R0
	@DEBUG_VALUE: deallocate:__p <- %R0
	@DEBUG_VALUE: deallocate:__p <- %R0
	.loc	1 234 55                @ /root/Bela/projects/final_project_v6/render.cpp:234:55
	movt	r4, :upper16:.L_MergedGlobals.4
.Ltmp349:
	.loc	59 191 11               @ /usr/bin/../lib/gcc/arm-linux-gnueabihf/6.3.0/../../../../include/c++/6.3.0/bits/move.h:191:11
	str	r6, [r2]
.Ltmp350:
	.loc	59 191 11 is_stmt 0     @ /usr/bin/../lib/gcc/arm-linux-gnueabihf/6.3.0/../../../../include/c++/6.3.0/bits/move.h:191:11
	stmib	r2, {r1, r7}
.Ltmp351:
	.loc	9 177 6 is_stmt 1       @ /usr/bin/../lib/gcc/arm-linux-gnueabihf/6.3.0/../../../../include/c++/6.3.0/bits/stl_vector.h:177:6
	cmp	r0, #0
.Ltmp352:
	@DEBUG_VALUE: operator=:this <- undef
	beq	.LBB11_81
.Ltmp353:
@ BB#80:
	@DEBUG_VALUE: deallocate:__p <- %R0
	@DEBUG_VALUE: deallocate:__p <- %R0
	@DEBUG_VALUE: _M_deallocate:__p <- %R0
	@DEBUG_VALUE: __copy_m<float>:_Num <- %R5
	@DEBUG_VALUE: __uninitialized_copy_a<__gnu_cxx::__normal_iterator<const float *, std::vector<float, std::allocator<float> > >, float *, float>:__result <- %R6
	@DEBUG_VALUE: _M_deallocate:__p <- %R9
	@DEBUG_VALUE: operator=:this <- %R8
	.loc	5 110 9                 @ /usr/bin/../lib/gcc/arm-linux-gnueabihf/6.3.0/../../../../include/c++/6.3.0/ext/new_allocator.h:110:9
	bl	_ZdlPv
.Ltmp354:
.LBB11_81:                              @ %_ZN11synthTimbreD2Ev.exit96
	@DEBUG_VALUE: __copy_m<float>:_Num <- %R5
	@DEBUG_VALUE: __uninitialized_copy_a<__gnu_cxx::__normal_iterator<const float *, std::vector<float, std::allocator<float> > >, float *, float>:__result <- %R6
	@DEBUG_VALUE: _M_deallocate:__p <- %R9
	@DEBUG_VALUE: operator=:this <- %R8
	.loc	59 190 19               @ /usr/bin/../lib/gcc/arm-linux-gnueabihf/6.3.0/../../../../include/c++/6.3.0/bits/move.h:190:19
	movw	r1, :lower16:gTriangle
.Ltmp355:
	.loc	1 175 8                 @ /root/Bela/projects/final_project_v6/render.cpp:175:8
	mov	r0, #1
.Ltmp356:
	.loc	59 190 19               @ /usr/bin/../lib/gcc/arm-linux-gnueabihf/6.3.0/../../../../include/c++/6.3.0/bits/move.h:190:19
	movt	r1, :upper16:gTriangle
.Ltmp357:
	.loc	9 656 40                @ /usr/bin/../lib/gcc/arm-linux-gnueabihf/6.3.0/../../../../include/c++/6.3.0/bits/stl_vector.h:656:40
	ldr	r2, [r4, #80]
.Ltmp358:
	.loc	1 175 8                 @ /root/Bela/projects/final_project_v6/render.cpp:175:8
	strb	r0, [r1, #12]
	mov	r9, #0
.Ltmp359:
	@DEBUG_VALUE: _M_deallocate:__p <- %R9
	@DEBUG_VALUE: _M_allocate:__n <- %R7
	@DEBUG_VALUE: _M_create_storage:__n <- %R7
	.loc	9 656 66                @ /usr/bin/../lib/gcc/arm-linux-gnueabihf/6.3.0/../../../../include/c++/6.3.0/bits/stl_vector.h:656:66
	ldr	r1, [r4, #76]
.Ltmp360:
	.loc	9 170 9 discriminator 3 @ /usr/bin/../lib/gcc/arm-linux-gnueabihf/6.3.0/../../../../include/c++/6.3.0/bits/stl_vector.h:170:9
	mov	r6, #0
.Ltmp361:
	.loc	9 656 50                @ /usr/bin/../lib/gcc/arm-linux-gnueabihf/6.3.0/../../../../include/c++/6.3.0/bits/stl_vector.h:656:50
	sub	r0, r2, r1
	asr	r7, r0, #2
.Ltmp362:
	@DEBUG_VALUE: _Vector_base:__n <- %R7
	@DEBUG_VALUE: allocate:__n <- %R7
	@DEBUG_VALUE: allocate:__n <- %R7
	.loc	9 170 9                 @ /usr/bin/../lib/gcc/arm-linux-gnueabihf/6.3.0/../../../../include/c++/6.3.0/bits/stl_vector.h:170:9
	cmp	r9, r0, asr #2
	beq	.LBB11_84
.Ltmp363:
@ BB#82:
	@DEBUG_VALUE: allocate:__n <- %R7
	@DEBUG_VALUE: allocate:__n <- %R7
	@DEBUG_VALUE: _Vector_base:__n <- %R7
	@DEBUG_VALUE: _M_deallocate:__p <- %R9
	@DEBUG_VALUE: __copy_m<float>:_Num <- %R5
	@DEBUG_VALUE: operator=:this <- %R8
	.loc	5 101 6                 @ /usr/bin/../lib/gcc/arm-linux-gnueabihf/6.3.0/../../../../include/c++/6.3.0/ext/new_allocator.h:101:6
	cmp	r7, #1073741824
	bhs	.LBB11_125
.Ltmp364:
@ BB#83:                                @ %_ZNSt16allocator_traitsISaIfEE8allocateERS0_j.exit.i.i.i.i98
	@DEBUG_VALUE: allocate:__n <- %R7
	@DEBUG_VALUE: allocate:__n <- %R7
	@DEBUG_VALUE: _Vector_base:__n <- %R7
	@DEBUG_VALUE: _M_deallocate:__p <- %R9
	@DEBUG_VALUE: __copy_m<float>:_Num <- %R5
	@DEBUG_VALUE: operator=:this <- %R8
	.loc	5 104 27                @ /usr/bin/../lib/gcc/arm-linux-gnueabihf/6.3.0/../../../../include/c++/6.3.0/ext/new_allocator.h:104:27
	bl	_Znwj
	mov	r6, r0
.Ltmp365:
	.loc	1 234 55                @ /root/Bela/projects/final_project_v6/render.cpp:234:55
	movw	r0, :lower16:.L_MergedGlobals.4
	movt	r0, :upper16:.L_MergedGlobals.4
.Ltmp366:
	.loc	9 558 45                @ /usr/bin/../lib/gcc/arm-linux-gnueabihf/6.3.0/../../../../include/c++/6.3.0/bits/stl_vector.h:558:45
	ldr	r1, [r0, #76]
.Ltmp367:
	.loc	9 576 45                @ /usr/bin/../lib/gcc/arm-linux-gnueabihf/6.3.0/../../../../include/c++/6.3.0/bits/stl_vector.h:576:45
	ldr	r2, [r0, #80]
.Ltmp368:
.LBB11_84:
	@DEBUG_VALUE: allocate:__n <- %R7
	@DEBUG_VALUE: allocate:__n <- %R7
	@DEBUG_VALUE: _Vector_base:__n <- %R7
	@DEBUG_VALUE: _M_deallocate:__p <- %R9
	@DEBUG_VALUE: __copy_m<float>:_Num <- %R5
	@DEBUG_VALUE: operator=:this <- %R8
	@DEBUG_VALUE: __uninitialized_copy_a<__gnu_cxx::__normal_iterator<const float *, std::vector<float, std::allocator<float> > >, float *, float>:__result <- %R6
	@DEBUG_VALUE: uninitialized_copy<__gnu_cxx::__normal_iterator<const float *, std::vector<float, std::allocator<float> > >, float *>:__assignable <- 1
	@DEBUG_VALUE: __copy_move_a<false, const float *, float *>:__simple <- 1
	.loc	58 366 34               @ /usr/bin/../lib/gcc/arm-linux-gnueabihf/6.3.0/../../../../include/c++/6.3.0/bits/stl_algobase.h:366:34
	sub	r2, r2, r1
.Ltmp369:
	.loc	9 187 59                @ /usr/bin/../lib/gcc/arm-linux-gnueabihf/6.3.0/../../../../include/c++/6.3.0/bits/stl_vector.h:187:59
	add	r7, r6, r7, lsl #2
.Ltmp370:
	.loc	58 366 34               @ /usr/bin/../lib/gcc/arm-linux-gnueabihf/6.3.0/../../../../include/c++/6.3.0/bits/stl_algobase.h:366:34
	asr	r5, r2, #2
.Ltmp371:
	@DEBUG_VALUE: __copy_m<float>:_Num <- %R5
	.loc	58 367 8                @ /usr/bin/../lib/gcc/arm-linux-gnueabihf/6.3.0/../../../../include/c++/6.3.0/bits/stl_algobase.h:367:8
	cmp	r9, r2, asr #2
	beq	.LBB11_86
.Ltmp372:
@ BB#85:
	@DEBUG_VALUE: __copy_m<float>:_Num <- %R5
	@DEBUG_VALUE: __uninitialized_copy_a<__gnu_cxx::__normal_iterator<const float *, std::vector<float, std::allocator<float> > >, float *, float>:__result <- %R6
	@DEBUG_VALUE: _M_deallocate:__p <- %R9
	@DEBUG_VALUE: operator=:this <- %R8
	.loc	58 368 6                @ /usr/bin/../lib/gcc/arm-linux-gnueabihf/6.3.0/../../../../include/c++/6.3.0/bits/stl_algobase.h:368:6
	mov	r0, r6
	bl	memmove
.Ltmp373:
.LBB11_86:                              @ %_ZNSt6vectorIfSaIfEEC2ERKS1_.exit99
	@DEBUG_VALUE: __copy_m<float>:_Num <- %R5
	@DEBUG_VALUE: __uninitialized_copy_a<__gnu_cxx::__normal_iterator<const float *, std::vector<float, std::allocator<float> > >, float *, float>:__result <- %R6
	@DEBUG_VALUE: _M_deallocate:__p <- %R9
	@DEBUG_VALUE: operator=:this <- %R8
	@DEBUG_VALUE: operator=:__move_storage <- 1
	.loc	59 190 19               @ /usr/bin/../lib/gcc/arm-linux-gnueabihf/6.3.0/../../../../include/c++/6.3.0/bits/move.h:190:19
	movw	r4, :lower16:gSine
.Ltmp374:
	.loc	58 369 20               @ /usr/bin/../lib/gcc/arm-linux-gnueabihf/6.3.0/../../../../include/c++/6.3.0/bits/stl_algobase.h:369:20
	add	r1, r6, r5, lsl #2
.Ltmp375:
	.loc	59 190 19               @ /usr/bin/../lib/gcc/arm-linux-gnueabihf/6.3.0/../../../../include/c++/6.3.0/bits/move.h:190:19
	movt	r4, :upper16:gSine
	ldr	r0, [r4]
.Ltmp376:
	@DEBUG_VALUE: _M_deallocate:__p <- %R0
	@DEBUG_VALUE: deallocate:__p <- %R0
	@DEBUG_VALUE: deallocate:__p <- %R0
	.loc	59 191 11               @ /usr/bin/../lib/gcc/arm-linux-gnueabihf/6.3.0/../../../../include/c++/6.3.0/bits/move.h:191:11
	str	r6, [r4]
.Ltmp377:
	.loc	59 191 11 is_stmt 0     @ /usr/bin/../lib/gcc/arm-linux-gnueabihf/6.3.0/../../../../include/c++/6.3.0/bits/move.h:191:11
	stmib	r4, {r1, r7}
.Ltmp378:
	.loc	1 234 55 is_stmt 1      @ /root/Bela/projects/final_project_v6/render.cpp:234:55
	movw	r7, :lower16:.L_MergedGlobals.4
	movt	r7, :upper16:.L_MergedGlobals.4
.Ltmp379:
	.loc	9 177 6                 @ /usr/bin/../lib/gcc/arm-linux-gnueabihf/6.3.0/../../../../include/c++/6.3.0/bits/stl_vector.h:177:6
	cmp	r0, #0
.Ltmp380:
	@DEBUG_VALUE: operator=:this <- %R4
	beq	.LBB11_88
.Ltmp381:
@ BB#87:
	@DEBUG_VALUE: operator=:this <- %R4
	@DEBUG_VALUE: deallocate:__p <- %R0
	@DEBUG_VALUE: deallocate:__p <- %R0
	@DEBUG_VALUE: _M_deallocate:__p <- %R0
	@DEBUG_VALUE: __copy_m<float>:_Num <- %R5
	@DEBUG_VALUE: __uninitialized_copy_a<__gnu_cxx::__normal_iterator<const float *, std::vector<float, std::allocator<float> > >, float *, float>:__result <- %R6
	@DEBUG_VALUE: _M_deallocate:__p <- %R9
	@DEBUG_VALUE: operator=:this <- %R8
	.loc	5 110 9                 @ /usr/bin/../lib/gcc/arm-linux-gnueabihf/6.3.0/../../../../include/c++/6.3.0/ext/new_allocator.h:110:9
	bl	_ZdlPv
.Ltmp382:
.LBB11_88:                              @ %_ZN11synthTimbreD2Ev.exit101
	@DEBUG_VALUE: operator=:this <- %R4
	@DEBUG_VALUE: __copy_m<float>:_Num <- %R5
	@DEBUG_VALUE: __uninitialized_copy_a<__gnu_cxx::__normal_iterator<const float *, std::vector<float, std::allocator<float> > >, float *, float>:__result <- %R6
	@DEBUG_VALUE: _M_deallocate:__p <- %R9
	@DEBUG_VALUE: operator=:this <- %R8
	.loc	9 916 20                @ /usr/bin/../lib/gcc/arm-linux-gnueabihf/6.3.0/../../../../include/c++/6.3.0/bits/stl_vector.h:916:20
	ldr	r5, [r7, #92]
.Ltmp383:
	mov	r6, #0
.Ltmp384:
	.loc	9 916 47 is_stmt 0      @ /usr/bin/../lib/gcc/arm-linux-gnueabihf/6.3.0/../../../../include/c++/6.3.0/bits/stl_vector.h:916:47
	ldr	r0, [r7, #96]
.Ltmp385:
	.loc	1 175 8 is_stmt 1       @ /root/Bela/projects/final_project_v6/render.cpp:175:8
	strb	r6, [r4, #12]
.Ltmp386:
	@DEBUG_VALUE: construct<synthTimbre, const synthTimbre &>:__p <- %R5
	@DEBUG_VALUE: construct<synthTimbre, const synthTimbre &>:__p <- %R5
	@DEBUG_VALUE: synthTimbre:this <- %R5
	.loc	9 916 6                 @ /usr/bin/../lib/gcc/arm-linux-gnueabihf/6.3.0/../../../../include/c++/6.3.0/bits/stl_vector.h:916:6
	cmp	r5, r0
	beq	.LBB11_95
.Ltmp387:
@ BB#89:
	@DEBUG_VALUE: synthTimbre:this <- %R5
	@DEBUG_VALUE: construct<synthTimbre, const synthTimbre &>:__p <- %R5
	@DEBUG_VALUE: construct<synthTimbre, const synthTimbre &>:__p <- %R5
	@DEBUG_VALUE: operator=:this <- %R4
	@DEBUG_VALUE: _M_deallocate:__p <- %R9
	@DEBUG_VALUE: operator=:this <- %R8
	@DEBUG_VALUE: _M_deallocate:__p <- %R6
	.loc	9 656 66                @ /usr/bin/../lib/gcc/arm-linux-gnueabihf/6.3.0/../../../../include/c++/6.3.0/bits/stl_vector.h:656:66
	ldm	r8, {r0, r1}
	.loc	9 656 50 is_stmt 0      @ /usr/bin/../lib/gcc/arm-linux-gnueabihf/6.3.0/../../../../include/c++/6.3.0/bits/stl_vector.h:656:50
	sub	r0, r1, r0
.Ltmp388:
	.loc	9 91 25 is_stmt 1       @ /usr/bin/../lib/gcc/arm-linux-gnueabihf/6.3.0/../../../../include/c++/6.3.0/bits/stl_vector.h:91:25
	str	r6, [r5]
	.loc	9 91 37 is_stmt 0       @ /usr/bin/../lib/gcc/arm-linux-gnueabihf/6.3.0/../../../../include/c++/6.3.0/bits/stl_vector.h:91:37
	str	r6, [r5, #4]
.Ltmp389:
	.loc	9 656 50 is_stmt 1      @ /usr/bin/../lib/gcc/arm-linux-gnueabihf/6.3.0/../../../../include/c++/6.3.0/bits/stl_vector.h:656:50
	asr	r9, r0, #2
.Ltmp390:
	@DEBUG_VALUE: _Vector_base:__n <- %R9
	@DEBUG_VALUE: _M_create_storage:__n <- %R9
	@DEBUG_VALUE: _M_allocate:__n <- %R9
	@DEBUG_VALUE: allocate:__n <- %R9
	@DEBUG_VALUE: allocate:__n <- %R9
	.loc	9 91 50                 @ /usr/bin/../lib/gcc/arm-linux-gnueabihf/6.3.0/../../../../include/c++/6.3.0/bits/stl_vector.h:91:50
	str	r6, [r5, #8]
.Ltmp391:
	.loc	9 170 9                 @ /usr/bin/../lib/gcc/arm-linux-gnueabihf/6.3.0/../../../../include/c++/6.3.0/bits/stl_vector.h:170:9
	cmp	r6, r0, asr #2
.Ltmp392:
	@DEBUG_VALUE: synthTimbre: <- %R8
	beq	.LBB11_92
.Ltmp393:
@ BB#90:
	@DEBUG_VALUE: synthTimbre: <- %R8
	@DEBUG_VALUE: allocate:__n <- %R9
	@DEBUG_VALUE: allocate:__n <- %R9
	@DEBUG_VALUE: _M_allocate:__n <- %R9
	@DEBUG_VALUE: _M_create_storage:__n <- %R9
	@DEBUG_VALUE: _Vector_base:__n <- %R9
	@DEBUG_VALUE: _M_deallocate:__p <- %R6
	@DEBUG_VALUE: synthTimbre:this <- %R5
	@DEBUG_VALUE: construct<synthTimbre, const synthTimbre &>:__p <- %R5
	@DEBUG_VALUE: construct<synthTimbre, const synthTimbre &>:__p <- %R5
	@DEBUG_VALUE: operator=:this <- %R4
	@DEBUG_VALUE: operator=:this <- %R8
	.loc	5 101 6                 @ /usr/bin/../lib/gcc/arm-linux-gnueabihf/6.3.0/../../../../include/c++/6.3.0/ext/new_allocator.h:101:6
	cmp	r9, #1073741824
	bhs	.LBB11_125
.Ltmp394:
@ BB#91:                                @ %_ZNSt16allocator_traitsISaIfEE8allocateERS0_j.exit.i.i.i.i.i.i.i.i84
	@DEBUG_VALUE: synthTimbre: <- %R8
	@DEBUG_VALUE: allocate:__n <- %R9
	@DEBUG_VALUE: allocate:__n <- %R9
	@DEBUG_VALUE: _M_allocate:__n <- %R9
	@DEBUG_VALUE: _M_create_storage:__n <- %R9
	@DEBUG_VALUE: _Vector_base:__n <- %R9
	@DEBUG_VALUE: _M_deallocate:__p <- %R6
	@DEBUG_VALUE: synthTimbre:this <- %R5
	@DEBUG_VALUE: construct<synthTimbre, const synthTimbre &>:__p <- %R5
	@DEBUG_VALUE: construct<synthTimbre, const synthTimbre &>:__p <- %R5
	@DEBUG_VALUE: operator=:this <- %R4
	@DEBUG_VALUE: operator=:this <- %R8
	.loc	5 104 27                @ /usr/bin/../lib/gcc/arm-linux-gnueabihf/6.3.0/../../../../include/c++/6.3.0/ext/new_allocator.h:104:27
	bl	_Znwj
	mov	r6, r0
.Ltmp395:
.LBB11_92:
	@DEBUG_VALUE: synthTimbre: <- %R8
	@DEBUG_VALUE: allocate:__n <- %R9
	@DEBUG_VALUE: allocate:__n <- %R9
	@DEBUG_VALUE: _M_allocate:__n <- %R9
	@DEBUG_VALUE: _M_create_storage:__n <- %R9
	@DEBUG_VALUE: _Vector_base:__n <- %R9
	@DEBUG_VALUE: synthTimbre:this <- %R5
	@DEBUG_VALUE: construct<synthTimbre, const synthTimbre &>:__p <- %R5
	@DEBUG_VALUE: construct<synthTimbre, const synthTimbre &>:__p <- %R5
	@DEBUG_VALUE: operator=:this <- %R4
	@DEBUG_VALUE: operator=:this <- %R8
	@DEBUG_VALUE: __uninitialized_copy_a<__gnu_cxx::__normal_iterator<const float *, std::vector<float, std::allocator<float> > >, float *, float>:__result <- %R6
	.loc	9 185 25                @ /usr/bin/../lib/gcc/arm-linux-gnueabihf/6.3.0/../../../../include/c++/6.3.0/bits/stl_vector.h:185:25
	str	r6, [r5]
	.loc	9 187 59                @ /usr/bin/../lib/gcc/arm-linux-gnueabihf/6.3.0/../../../../include/c++/6.3.0/bits/stl_vector.h:187:59
	add	r0, r6, r9, lsl #2
.Ltmp396:
	@DEBUG_VALUE: __copy_move_a<false, const float *, float *>:__simple <- 1
	@DEBUG_VALUE: uninitialized_copy<__gnu_cxx::__normal_iterator<const float *, std::vector<float, std::allocator<float> > >, float *>:__assignable <- 1
	.loc	9 186 26                @ /usr/bin/../lib/gcc/arm-linux-gnueabihf/6.3.0/../../../../include/c++/6.3.0/bits/stl_vector.h:186:26
	str	r6, [r5, #4]
	.loc	9 187 34                @ /usr/bin/../lib/gcc/arm-linux-gnueabihf/6.3.0/../../../../include/c++/6.3.0/bits/stl_vector.h:187:34
	str	r0, [r5, #8]
.Ltmp397:
	.loc	9 558 45                @ /usr/bin/../lib/gcc/arm-linux-gnueabihf/6.3.0/../../../../include/c++/6.3.0/bits/stl_vector.h:558:45
	ldr	r1, [r8]
.Ltmp398:
	.loc	9 576 45                @ /usr/bin/../lib/gcc/arm-linux-gnueabihf/6.3.0/../../../../include/c++/6.3.0/bits/stl_vector.h:576:45
	ldr	r0, [r8, #4]
.Ltmp399:
	.loc	58 366 34               @ /usr/bin/../lib/gcc/arm-linux-gnueabihf/6.3.0/../../../../include/c++/6.3.0/bits/stl_algobase.h:366:34
	sub	r2, r0, r1
	mov	r0, #0
	asr	r9, r2, #2
.Ltmp400:
	@DEBUG_VALUE: __copy_m<float>:_Num <- %R9
	.loc	58 367 8                @ /usr/bin/../lib/gcc/arm-linux-gnueabihf/6.3.0/../../../../include/c++/6.3.0/bits/stl_algobase.h:367:8
	cmp	r0, r2, asr #2
	beq	.LBB11_94
.Ltmp401:
@ BB#93:
	@DEBUG_VALUE: __copy_m<float>:_Num <- %R9
	@DEBUG_VALUE: __uninitialized_copy_a<__gnu_cxx::__normal_iterator<const float *, std::vector<float, std::allocator<float> > >, float *, float>:__result <- %R6
	@DEBUG_VALUE: synthTimbre: <- %R8
	@DEBUG_VALUE: synthTimbre:this <- %R5
	@DEBUG_VALUE: construct<synthTimbre, const synthTimbre &>:__p <- %R5
	@DEBUG_VALUE: construct<synthTimbre, const synthTimbre &>:__p <- %R5
	@DEBUG_VALUE: operator=:this <- %R4
	@DEBUG_VALUE: operator=:this <- %R8
	.loc	58 368 6                @ /usr/bin/../lib/gcc/arm-linux-gnueabihf/6.3.0/../../../../include/c++/6.3.0/bits/stl_algobase.h:368:6
	mov	r0, r6
	bl	memmove
.Ltmp402:
.LBB11_94:                              @ %_ZNSt16allocator_traitsISaI11synthTimbreEE9constructIS0_JRKS0_EEEvRS1_PT_DpOT0_.exit.i85
	@DEBUG_VALUE: __copy_m<float>:_Num <- %R9
	@DEBUG_VALUE: __uninitialized_copy_a<__gnu_cxx::__normal_iterator<const float *, std::vector<float, std::allocator<float> > >, float *, float>:__result <- %R6
	@DEBUG_VALUE: synthTimbre: <- %R8
	@DEBUG_VALUE: synthTimbre:this <- %R5
	@DEBUG_VALUE: construct<synthTimbre, const synthTimbre &>:__p <- %R5
	@DEBUG_VALUE: construct<synthTimbre, const synthTimbre &>:__p <- %R5
	@DEBUG_VALUE: operator=:this <- %R4
	@DEBUG_VALUE: operator=:this <- %R8
	.loc	58 369 20               @ /usr/bin/../lib/gcc/arm-linux-gnueabihf/6.3.0/../../../../include/c++/6.3.0/bits/stl_algobase.h:369:20
	add	r0, r6, r9, lsl #2
.Ltmp403:
	.loc	9 323 33 discriminator 1 @ /usr/bin/../lib/gcc/arm-linux-gnueabihf/6.3.0/../../../../include/c++/6.3.0/bits/stl_vector.h:323:33
	str	r0, [r5, #4]
.Ltmp404:
	.loc	1 175 8                 @ /root/Bela/projects/final_project_v6/render.cpp:175:8
	ldrb	r0, [r8, #12]
	strb	r0, [r5, #12]
.Ltmp405:
	.loc	9 920 6                 @ /usr/bin/../lib/gcc/arm-linux-gnueabihf/6.3.0/../../../../include/c++/6.3.0/bits/stl_vector.h:920:6
	ldr	r0, [r7, #92]
	add	r5, r0, #16
.Ltmp406:
	str	r5, [r7, #92]
	b	.LBB11_96
.Ltmp407:
.LBB11_95:
	@DEBUG_VALUE: synthTimbre:this <- %R5
	@DEBUG_VALUE: construct<synthTimbre, const synthTimbre &>:__p <- %R5
	@DEBUG_VALUE: construct<synthTimbre, const synthTimbre &>:__p <- %R5
	@DEBUG_VALUE: operator=:this <- %R4
	@DEBUG_VALUE: _M_deallocate:__p <- %R9
	@DEBUG_VALUE: operator=:this <- %R8
	.loc	9 924 4                 @ /usr/bin/../lib/gcc/arm-linux-gnueabihf/6.3.0/../../../../include/c++/6.3.0/bits/stl_vector.h:924:4
	movw	r1, :lower16:gSawtooth
	add	r0, r7, #88
.Ltmp408:
	@DEBUG_VALUE: push_back:this <- %R0
	movt	r1, :upper16:gSawtooth
	bl	_ZNSt6vectorI11synthTimbreSaIS0_EE19_M_emplace_back_auxIJRKS0_EEEvDpOT_
.Ltmp409:
	.loc	9 916 20                @ /usr/bin/../lib/gcc/arm-linux-gnueabihf/6.3.0/../../../../include/c++/6.3.0/bits/stl_vector.h:916:20
	ldr	r5, [r7, #92]
.Ltmp410:
.LBB11_96:                              @ %_ZNSt6vectorI11synthTimbreSaIS0_EE9push_backERKS0_.exit86
	@DEBUG_VALUE: operator=:this <- %R4
	@DEBUG_VALUE: operator=:this <- %R8
	@DEBUG_VALUE: construct<synthTimbre, const synthTimbre &>:__p <- %R5
	.loc	9 916 47 is_stmt 0      @ /usr/bin/../lib/gcc/arm-linux-gnueabihf/6.3.0/../../../../include/c++/6.3.0/bits/stl_vector.h:916:47
	ldr	r0, [r7, #96]
.Ltmp411:
	.loc	9 916 6                 @ /usr/bin/../lib/gcc/arm-linux-gnueabihf/6.3.0/../../../../include/c++/6.3.0/bits/stl_vector.h:916:6
	cmp	r5, r0
	beq	.LBB11_103
.Ltmp412:
@ BB#97:
	@DEBUG_VALUE: construct<synthTimbre, const synthTimbre &>:__p <- %R5
	@DEBUG_VALUE: operator=:this <- %R4
	@DEBUG_VALUE: operator=:this <- %R8
	.loc	59 190 19 is_stmt 1     @ /usr/bin/../lib/gcc/arm-linux-gnueabihf/6.3.0/../../../../include/c++/6.3.0/bits/move.h:190:19
	movw	r0, :lower16:gSquare
	mov	r9, #0
	movt	r0, :upper16:gSquare
.Ltmp413:
	.loc	9 170 9 discriminator 3 @ /usr/bin/../lib/gcc/arm-linux-gnueabihf/6.3.0/../../../../include/c++/6.3.0/bits/stl_vector.h:170:9
	mov	r6, #0
	mov	r1, r0
.Ltmp414:
	.loc	9 656 66                @ /usr/bin/../lib/gcc/arm-linux-gnueabihf/6.3.0/../../../../include/c++/6.3.0/bits/stl_vector.h:656:66
	ldm	r1, {r0, r1}
	.loc	9 656 50 is_stmt 0      @ /usr/bin/../lib/gcc/arm-linux-gnueabihf/6.3.0/../../../../include/c++/6.3.0/bits/stl_vector.h:656:50
	sub	r0, r1, r0
.Ltmp415:
	.loc	9 91 25 is_stmt 1       @ /usr/bin/../lib/gcc/arm-linux-gnueabihf/6.3.0/../../../../include/c++/6.3.0/bits/stl_vector.h:91:25
	str	r9, [r5]
	.loc	9 91 37 is_stmt 0       @ /usr/bin/../lib/gcc/arm-linux-gnueabihf/6.3.0/../../../../include/c++/6.3.0/bits/stl_vector.h:91:37
	str	r9, [r5, #4]
.Ltmp416:
	.loc	9 656 50 is_stmt 1      @ /usr/bin/../lib/gcc/arm-linux-gnueabihf/6.3.0/../../../../include/c++/6.3.0/bits/stl_vector.h:656:50
	asr	r7, r0, #2
.Ltmp417:
	@DEBUG_VALUE: _Vector_base:__n <- %R7
	@DEBUG_VALUE: _M_create_storage:__n <- %R7
	@DEBUG_VALUE: _M_allocate:__n <- %R7
	@DEBUG_VALUE: allocate:__n <- %R7
	@DEBUG_VALUE: allocate:__n <- %R7
	.loc	9 91 50                 @ /usr/bin/../lib/gcc/arm-linux-gnueabihf/6.3.0/../../../../include/c++/6.3.0/bits/stl_vector.h:91:50
	str	r9, [r5, #8]
.Ltmp418:
	.loc	9 170 9                 @ /usr/bin/../lib/gcc/arm-linux-gnueabihf/6.3.0/../../../../include/c++/6.3.0/bits/stl_vector.h:170:9
	cmp	r9, r0, asr #2
.Ltmp419:
	@DEBUG_VALUE: synthTimbre: <- undef
	beq	.LBB11_100
.Ltmp420:
@ BB#98:
	@DEBUG_VALUE: allocate:__n <- %R7
	@DEBUG_VALUE: allocate:__n <- %R7
	@DEBUG_VALUE: _M_allocate:__n <- %R7
	@DEBUG_VALUE: _M_create_storage:__n <- %R7
	@DEBUG_VALUE: _Vector_base:__n <- %R7
	@DEBUG_VALUE: construct<synthTimbre, const synthTimbre &>:__p <- %R5
	@DEBUG_VALUE: operator=:this <- %R4
	@DEBUG_VALUE: operator=:this <- %R8
	.loc	5 101 6                 @ /usr/bin/../lib/gcc/arm-linux-gnueabihf/6.3.0/../../../../include/c++/6.3.0/ext/new_allocator.h:101:6
	cmp	r7, #1073741824
	bhs	.LBB11_125
.Ltmp421:
@ BB#99:                                @ %_ZNSt16allocator_traitsISaIfEE8allocateERS0_j.exit.i.i.i.i.i.i.i.i78
	@DEBUG_VALUE: allocate:__n <- %R7
	@DEBUG_VALUE: allocate:__n <- %R7
	@DEBUG_VALUE: _M_allocate:__n <- %R7
	@DEBUG_VALUE: _M_create_storage:__n <- %R7
	@DEBUG_VALUE: _Vector_base:__n <- %R7
	@DEBUG_VALUE: construct<synthTimbre, const synthTimbre &>:__p <- %R5
	@DEBUG_VALUE: operator=:this <- %R4
	@DEBUG_VALUE: operator=:this <- %R8
	.loc	5 104 27                @ /usr/bin/../lib/gcc/arm-linux-gnueabihf/6.3.0/../../../../include/c++/6.3.0/ext/new_allocator.h:104:27
	bl	_Znwj
	mov	r6, r0
.Ltmp422:
.LBB11_100:
	@DEBUG_VALUE: allocate:__n <- %R7
	@DEBUG_VALUE: allocate:__n <- %R7
	@DEBUG_VALUE: _M_allocate:__n <- %R7
	@DEBUG_VALUE: _M_create_storage:__n <- %R7
	@DEBUG_VALUE: _Vector_base:__n <- %R7
	@DEBUG_VALUE: construct<synthTimbre, const synthTimbre &>:__p <- %R5
	@DEBUG_VALUE: operator=:this <- %R4
	@DEBUG_VALUE: operator=:this <- %R8
	@DEBUG_VALUE: __uninitialized_copy_a<__gnu_cxx::__normal_iterator<const float *, std::vector<float, std::allocator<float> > >, float *, float>:__result <- %R6
	.loc	9 187 59                @ /usr/bin/../lib/gcc/arm-linux-gnueabihf/6.3.0/../../../../include/c++/6.3.0/bits/stl_vector.h:187:59
	add	r0, r6, r7, lsl #2
.Ltmp423:
	@DEBUG_VALUE: __copy_move_a<false, const float *, float *>:__simple <- 1
	@DEBUG_VALUE: uninitialized_copy<__gnu_cxx::__normal_iterator<const float *, std::vector<float, std::allocator<float> > >, float *>:__assignable <- 1
	.loc	9 185 25                @ /usr/bin/../lib/gcc/arm-linux-gnueabihf/6.3.0/../../../../include/c++/6.3.0/bits/stl_vector.h:185:25
	str	r6, [r5]
	.loc	9 186 26                @ /usr/bin/../lib/gcc/arm-linux-gnueabihf/6.3.0/../../../../include/c++/6.3.0/bits/stl_vector.h:186:26
	str	r6, [r5, #4]
	.loc	9 187 34                @ /usr/bin/../lib/gcc/arm-linux-gnueabihf/6.3.0/../../../../include/c++/6.3.0/bits/stl_vector.h:187:34
	str	r0, [r5, #8]
.Ltmp424:
	.loc	59 190 19               @ /usr/bin/../lib/gcc/arm-linux-gnueabihf/6.3.0/../../../../include/c++/6.3.0/bits/move.h:190:19
	movw	r0, :lower16:gSquare
	movt	r0, :upper16:gSquare
.Ltmp425:
	.loc	9 558 45                @ /usr/bin/../lib/gcc/arm-linux-gnueabihf/6.3.0/../../../../include/c++/6.3.0/bits/stl_vector.h:558:45
	ldr	r1, [r0]
.Ltmp426:
	.loc	9 576 45                @ /usr/bin/../lib/gcc/arm-linux-gnueabihf/6.3.0/../../../../include/c++/6.3.0/bits/stl_vector.h:576:45
	ldr	r0, [r0, #4]
.Ltmp427:
	.loc	58 366 34               @ /usr/bin/../lib/gcc/arm-linux-gnueabihf/6.3.0/../../../../include/c++/6.3.0/bits/stl_algobase.h:366:34
	sub	r2, r0, r1
	asr	r7, r2, #2
.Ltmp428:
	@DEBUG_VALUE: __copy_m<float>:_Num <- %R7
	.loc	58 367 8                @ /usr/bin/../lib/gcc/arm-linux-gnueabihf/6.3.0/../../../../include/c++/6.3.0/bits/stl_algobase.h:367:8
	cmp	r9, r2, asr #2
	beq	.LBB11_102
.Ltmp429:
@ BB#101:
	@DEBUG_VALUE: __copy_m<float>:_Num <- %R7
	@DEBUG_VALUE: __uninitialized_copy_a<__gnu_cxx::__normal_iterator<const float *, std::vector<float, std::allocator<float> > >, float *, float>:__result <- %R6
	@DEBUG_VALUE: construct<synthTimbre, const synthTimbre &>:__p <- %R5
	@DEBUG_VALUE: operator=:this <- %R4
	@DEBUG_VALUE: operator=:this <- %R8
	.loc	58 368 6                @ /usr/bin/../lib/gcc/arm-linux-gnueabihf/6.3.0/../../../../include/c++/6.3.0/bits/stl_algobase.h:368:6
	mov	r0, r6
	bl	memmove
.Ltmp430:
.LBB11_102:                             @ %_ZNSt16allocator_traitsISaI11synthTimbreEE9constructIS0_JRKS0_EEEvRS1_PT_DpOT0_.exit.i79
	@DEBUG_VALUE: __copy_m<float>:_Num <- %R7
	@DEBUG_VALUE: __uninitialized_copy_a<__gnu_cxx::__normal_iterator<const float *, std::vector<float, std::allocator<float> > >, float *, float>:__result <- %R6
	@DEBUG_VALUE: construct<synthTimbre, const synthTimbre &>:__p <- %R5
	@DEBUG_VALUE: operator=:this <- %R4
	@DEBUG_VALUE: operator=:this <- %R8
	.loc	58 369 20               @ /usr/bin/../lib/gcc/arm-linux-gnueabihf/6.3.0/../../../../include/c++/6.3.0/bits/stl_algobase.h:369:20
	add	r0, r6, r7, lsl #2
.Ltmp431:
	.loc	9 323 33 discriminator 1 @ /usr/bin/../lib/gcc/arm-linux-gnueabihf/6.3.0/../../../../include/c++/6.3.0/bits/stl_vector.h:323:33
	str	r0, [r5, #4]
.Ltmp432:
	.loc	59 190 19               @ /usr/bin/../lib/gcc/arm-linux-gnueabihf/6.3.0/../../../../include/c++/6.3.0/bits/move.h:190:19
	movw	r0, :lower16:gSquare
.Ltmp433:
	.loc	1 234 55                @ /root/Bela/projects/final_project_v6/render.cpp:234:55
	movw	r7, :lower16:.L_MergedGlobals.4
.Ltmp434:
	.loc	59 190 19               @ /usr/bin/../lib/gcc/arm-linux-gnueabihf/6.3.0/../../../../include/c++/6.3.0/bits/move.h:190:19
	movt	r0, :upper16:gSquare
.Ltmp435:
	.loc	1 234 55                @ /root/Bela/projects/final_project_v6/render.cpp:234:55
	movt	r7, :upper16:.L_MergedGlobals.4
.Ltmp436:
	.loc	1 175 8                 @ /root/Bela/projects/final_project_v6/render.cpp:175:8
	ldrb	r0, [r0, #12]
	strb	r0, [r5, #12]
.Ltmp437:
	.loc	9 920 6                 @ /usr/bin/../lib/gcc/arm-linux-gnueabihf/6.3.0/../../../../include/c++/6.3.0/bits/stl_vector.h:920:6
	ldr	r0, [r7, #92]
	add	r5, r0, #16
.Ltmp438:
	str	r5, [r7, #92]
	b	.LBB11_104
.Ltmp439:
.LBB11_103:
	@DEBUG_VALUE: construct<synthTimbre, const synthTimbre &>:__p <- %R5
	@DEBUG_VALUE: operator=:this <- %R4
	@DEBUG_VALUE: operator=:this <- %R8
	.loc	9 924 4                 @ /usr/bin/../lib/gcc/arm-linux-gnueabihf/6.3.0/../../../../include/c++/6.3.0/bits/stl_vector.h:924:4
	movw	r1, :lower16:gSquare
	add	r0, r7, #88
.Ltmp440:
	@DEBUG_VALUE: push_back:this <- %R0
	movt	r1, :upper16:gSquare
	bl	_ZNSt6vectorI11synthTimbreSaIS0_EE19_M_emplace_back_auxIJRKS0_EEEvDpOT_
.Ltmp441:
	.loc	9 916 20                @ /usr/bin/../lib/gcc/arm-linux-gnueabihf/6.3.0/../../../../include/c++/6.3.0/bits/stl_vector.h:916:20
	ldr	r5, [r7, #92]
.Ltmp442:
.LBB11_104:                             @ %_ZNSt6vectorI11synthTimbreSaIS0_EE9push_backERKS0_.exit80
	@DEBUG_VALUE: operator=:this <- %R4
	@DEBUG_VALUE: operator=:this <- %R8
	@DEBUG_VALUE: construct<synthTimbre, const synthTimbre &>:__p <- %R5
	.loc	9 916 47 is_stmt 0      @ /usr/bin/../lib/gcc/arm-linux-gnueabihf/6.3.0/../../../../include/c++/6.3.0/bits/stl_vector.h:916:47
	ldr	r0, [r7, #96]
.Ltmp443:
	.loc	9 916 6                 @ /usr/bin/../lib/gcc/arm-linux-gnueabihf/6.3.0/../../../../include/c++/6.3.0/bits/stl_vector.h:916:6
	cmp	r5, r0
	beq	.LBB11_111
.Ltmp444:
@ BB#105:
	@DEBUG_VALUE: construct<synthTimbre, const synthTimbre &>:__p <- %R5
	@DEBUG_VALUE: operator=:this <- %R4
	@DEBUG_VALUE: operator=:this <- %R8
	.loc	59 190 19 is_stmt 1     @ /usr/bin/../lib/gcc/arm-linux-gnueabihf/6.3.0/../../../../include/c++/6.3.0/bits/move.h:190:19
	movw	r0, :lower16:gTriangle
	mov	r8, #0
.Ltmp445:
	movt	r0, :upper16:gTriangle
.Ltmp446:
	.loc	9 170 9 discriminator 3 @ /usr/bin/../lib/gcc/arm-linux-gnueabihf/6.3.0/../../../../include/c++/6.3.0/bits/stl_vector.h:170:9
	mov	r6, #0
	mov	r1, r0
.Ltmp447:
	.loc	9 656 66                @ /usr/bin/../lib/gcc/arm-linux-gnueabihf/6.3.0/../../../../include/c++/6.3.0/bits/stl_vector.h:656:66
	ldm	r1, {r0, r1}
	.loc	9 656 50 is_stmt 0      @ /usr/bin/../lib/gcc/arm-linux-gnueabihf/6.3.0/../../../../include/c++/6.3.0/bits/stl_vector.h:656:50
	sub	r0, r1, r0
.Ltmp448:
	.loc	9 91 25 is_stmt 1       @ /usr/bin/../lib/gcc/arm-linux-gnueabihf/6.3.0/../../../../include/c++/6.3.0/bits/stl_vector.h:91:25
	str	r8, [r5]
	.loc	9 91 37 is_stmt 0       @ /usr/bin/../lib/gcc/arm-linux-gnueabihf/6.3.0/../../../../include/c++/6.3.0/bits/stl_vector.h:91:37
	str	r8, [r5, #4]
.Ltmp449:
	.loc	9 656 50 is_stmt 1      @ /usr/bin/../lib/gcc/arm-linux-gnueabihf/6.3.0/../../../../include/c++/6.3.0/bits/stl_vector.h:656:50
	asr	r9, r0, #2
.Ltmp450:
	@DEBUG_VALUE: _Vector_base:__n <- %R9
	@DEBUG_VALUE: _M_create_storage:__n <- %R9
	@DEBUG_VALUE: _M_allocate:__n <- %R9
	@DEBUG_VALUE: allocate:__n <- %R9
	@DEBUG_VALUE: allocate:__n <- %R9
	.loc	9 91 50                 @ /usr/bin/../lib/gcc/arm-linux-gnueabihf/6.3.0/../../../../include/c++/6.3.0/bits/stl_vector.h:91:50
	str	r8, [r5, #8]
.Ltmp451:
	.loc	9 170 9                 @ /usr/bin/../lib/gcc/arm-linux-gnueabihf/6.3.0/../../../../include/c++/6.3.0/bits/stl_vector.h:170:9
	cmp	r8, r0, asr #2
.Ltmp452:
	@DEBUG_VALUE: synthTimbre: <- undef
	beq	.LBB11_108
.Ltmp453:
@ BB#106:
	@DEBUG_VALUE: allocate:__n <- %R9
	@DEBUG_VALUE: allocate:__n <- %R9
	@DEBUG_VALUE: _M_allocate:__n <- %R9
	@DEBUG_VALUE: _M_create_storage:__n <- %R9
	@DEBUG_VALUE: _Vector_base:__n <- %R9
	@DEBUG_VALUE: construct<synthTimbre, const synthTimbre &>:__p <- %R5
	@DEBUG_VALUE: operator=:this <- %R4
	.loc	5 101 6                 @ /usr/bin/../lib/gcc/arm-linux-gnueabihf/6.3.0/../../../../include/c++/6.3.0/ext/new_allocator.h:101:6
	cmp	r9, #1073741824
	bhs	.LBB11_125
.Ltmp454:
@ BB#107:                               @ %_ZNSt16allocator_traitsISaIfEE8allocateERS0_j.exit.i.i.i.i.i.i.i.i65
	@DEBUG_VALUE: allocate:__n <- %R9
	@DEBUG_VALUE: allocate:__n <- %R9
	@DEBUG_VALUE: _M_allocate:__n <- %R9
	@DEBUG_VALUE: _M_create_storage:__n <- %R9
	@DEBUG_VALUE: _Vector_base:__n <- %R9
	@DEBUG_VALUE: construct<synthTimbre, const synthTimbre &>:__p <- %R5
	@DEBUG_VALUE: operator=:this <- %R4
	.loc	5 104 27                @ /usr/bin/../lib/gcc/arm-linux-gnueabihf/6.3.0/../../../../include/c++/6.3.0/ext/new_allocator.h:104:27
	bl	_Znwj
	mov	r6, r0
.Ltmp455:
.LBB11_108:
	@DEBUG_VALUE: allocate:__n <- %R9
	@DEBUG_VALUE: allocate:__n <- %R9
	@DEBUG_VALUE: _M_allocate:__n <- %R9
	@DEBUG_VALUE: _M_create_storage:__n <- %R9
	@DEBUG_VALUE: _Vector_base:__n <- %R9
	@DEBUG_VALUE: construct<synthTimbre, const synthTimbre &>:__p <- %R5
	@DEBUG_VALUE: operator=:this <- %R4
	@DEBUG_VALUE: __uninitialized_copy_a<__gnu_cxx::__normal_iterator<const float *, std::vector<float, std::allocator<float> > >, float *, float>:__result <- %R6
	.loc	9 187 59                @ /usr/bin/../lib/gcc/arm-linux-gnueabihf/6.3.0/../../../../include/c++/6.3.0/bits/stl_vector.h:187:59
	add	r0, r6, r9, lsl #2
.Ltmp456:
	@DEBUG_VALUE: __copy_move_a<false, const float *, float *>:__simple <- 1
	@DEBUG_VALUE: uninitialized_copy<__gnu_cxx::__normal_iterator<const float *, std::vector<float, std::allocator<float> > >, float *>:__assignable <- 1
	.loc	9 185 25                @ /usr/bin/../lib/gcc/arm-linux-gnueabihf/6.3.0/../../../../include/c++/6.3.0/bits/stl_vector.h:185:25
	str	r6, [r5]
	.loc	9 186 26                @ /usr/bin/../lib/gcc/arm-linux-gnueabihf/6.3.0/../../../../include/c++/6.3.0/bits/stl_vector.h:186:26
	str	r6, [r5, #4]
	.loc	9 187 34                @ /usr/bin/../lib/gcc/arm-linux-gnueabihf/6.3.0/../../../../include/c++/6.3.0/bits/stl_vector.h:187:34
	str	r0, [r5, #8]
.Ltmp457:
	.loc	59 190 19               @ /usr/bin/../lib/gcc/arm-linux-gnueabihf/6.3.0/../../../../include/c++/6.3.0/bits/move.h:190:19
	movw	r0, :lower16:gTriangle
	movt	r0, :upper16:gTriangle
.Ltmp458:
	.loc	9 558 45                @ /usr/bin/../lib/gcc/arm-linux-gnueabihf/6.3.0/../../../../include/c++/6.3.0/bits/stl_vector.h:558:45
	ldr	r1, [r0]
.Ltmp459:
	.loc	9 576 45                @ /usr/bin/../lib/gcc/arm-linux-gnueabihf/6.3.0/../../../../include/c++/6.3.0/bits/stl_vector.h:576:45
	ldr	r0, [r0, #4]
.Ltmp460:
	.loc	58 366 34               @ /usr/bin/../lib/gcc/arm-linux-gnueabihf/6.3.0/../../../../include/c++/6.3.0/bits/stl_algobase.h:366:34
	sub	r2, r0, r1
	asr	r9, r2, #2
.Ltmp461:
	@DEBUG_VALUE: __copy_m<float>:_Num <- %R9
	.loc	58 367 8                @ /usr/bin/../lib/gcc/arm-linux-gnueabihf/6.3.0/../../../../include/c++/6.3.0/bits/stl_algobase.h:367:8
	cmp	r8, r2, asr #2
	beq	.LBB11_110
.Ltmp462:
@ BB#109:
	@DEBUG_VALUE: __copy_m<float>:_Num <- %R9
	@DEBUG_VALUE: __uninitialized_copy_a<__gnu_cxx::__normal_iterator<const float *, std::vector<float, std::allocator<float> > >, float *, float>:__result <- %R6
	@DEBUG_VALUE: construct<synthTimbre, const synthTimbre &>:__p <- %R5
	@DEBUG_VALUE: operator=:this <- %R4
	.loc	58 368 6                @ /usr/bin/../lib/gcc/arm-linux-gnueabihf/6.3.0/../../../../include/c++/6.3.0/bits/stl_algobase.h:368:6
	mov	r0, r6
	bl	memmove
.Ltmp463:
.LBB11_110:                             @ %_ZNSt16allocator_traitsISaI11synthTimbreEE9constructIS0_JRKS0_EEEvRS1_PT_DpOT0_.exit.i66
	@DEBUG_VALUE: __copy_m<float>:_Num <- %R9
	@DEBUG_VALUE: __uninitialized_copy_a<__gnu_cxx::__normal_iterator<const float *, std::vector<float, std::allocator<float> > >, float *, float>:__result <- %R6
	@DEBUG_VALUE: construct<synthTimbre, const synthTimbre &>:__p <- %R5
	@DEBUG_VALUE: operator=:this <- %R4
	.loc	58 369 20               @ /usr/bin/../lib/gcc/arm-linux-gnueabihf/6.3.0/../../../../include/c++/6.3.0/bits/stl_algobase.h:369:20
	add	r0, r6, r9, lsl #2
.Ltmp464:
	.loc	9 323 33 discriminator 1 @ /usr/bin/../lib/gcc/arm-linux-gnueabihf/6.3.0/../../../../include/c++/6.3.0/bits/stl_vector.h:323:33
	str	r0, [r5, #4]
.Ltmp465:
	.loc	59 190 19               @ /usr/bin/../lib/gcc/arm-linux-gnueabihf/6.3.0/../../../../include/c++/6.3.0/bits/move.h:190:19
	movw	r0, :lower16:gTriangle
	movt	r0, :upper16:gTriangle
.Ltmp466:
	.loc	1 175 8                 @ /root/Bela/projects/final_project_v6/render.cpp:175:8
	ldrb	r0, [r0, #12]
	strb	r0, [r5, #12]
.Ltmp467:
	.loc	9 920 6                 @ /usr/bin/../lib/gcc/arm-linux-gnueabihf/6.3.0/../../../../include/c++/6.3.0/bits/stl_vector.h:920:6
	ldr	r0, [r7, #92]
	add	r5, r0, #16
.Ltmp468:
	str	r5, [r7, #92]
	b	.LBB11_112
.Ltmp469:
.LBB11_111:
	@DEBUG_VALUE: construct<synthTimbre, const synthTimbre &>:__p <- %R5
	@DEBUG_VALUE: operator=:this <- %R4
	@DEBUG_VALUE: operator=:this <- %R8
	.loc	9 924 4                 @ /usr/bin/../lib/gcc/arm-linux-gnueabihf/6.3.0/../../../../include/c++/6.3.0/bits/stl_vector.h:924:4
	movw	r1, :lower16:gTriangle
	add	r0, r7, #88
.Ltmp470:
	@DEBUG_VALUE: push_back:this <- %R0
	movt	r1, :upper16:gTriangle
	bl	_ZNSt6vectorI11synthTimbreSaIS0_EE19_M_emplace_back_auxIJRKS0_EEEvDpOT_
.Ltmp471:
	.loc	9 916 20                @ /usr/bin/../lib/gcc/arm-linux-gnueabihf/6.3.0/../../../../include/c++/6.3.0/bits/stl_vector.h:916:20
	ldr	r5, [r7, #92]
.Ltmp472:
.LBB11_112:                             @ %_ZNSt6vectorI11synthTimbreSaIS0_EE9push_backERKS0_.exit67
	@DEBUG_VALUE: operator=:this <- %R4
	@DEBUG_VALUE: construct<synthTimbre, const synthTimbre &>:__p <- %R5
	.loc	9 916 47 is_stmt 0      @ /usr/bin/../lib/gcc/arm-linux-gnueabihf/6.3.0/../../../../include/c++/6.3.0/bits/stl_vector.h:916:47
	ldr	r0, [r7, #96]
.Ltmp473:
	.loc	9 916 6                 @ /usr/bin/../lib/gcc/arm-linux-gnueabihf/6.3.0/../../../../include/c++/6.3.0/bits/stl_vector.h:916:6
	cmp	r5, r0
	beq	.LBB11_119
.Ltmp474:
@ BB#113:
	@DEBUG_VALUE: construct<synthTimbre, const synthTimbre &>:__p <- %R5
	@DEBUG_VALUE: operator=:this <- %R4
	.loc	9 656 66 is_stmt 1      @ /usr/bin/../lib/gcc/arm-linux-gnueabihf/6.3.0/../../../../include/c++/6.3.0/bits/stl_vector.h:656:66
	ldm	r4, {r0, r1}
	mov	r8, #0
.Ltmp475:
	.loc	9 170 9 discriminator 3 @ /usr/bin/../lib/gcc/arm-linux-gnueabihf/6.3.0/../../../../include/c++/6.3.0/bits/stl_vector.h:170:9
	mov	r6, #0
.Ltmp476:
	.loc	9 656 50                @ /usr/bin/../lib/gcc/arm-linux-gnueabihf/6.3.0/../../../../include/c++/6.3.0/bits/stl_vector.h:656:50
	sub	r0, r1, r0
.Ltmp477:
	.loc	9 91 25                 @ /usr/bin/../lib/gcc/arm-linux-gnueabihf/6.3.0/../../../../include/c++/6.3.0/bits/stl_vector.h:91:25
	str	r8, [r5]
	.loc	9 91 37 is_stmt 0       @ /usr/bin/../lib/gcc/arm-linux-gnueabihf/6.3.0/../../../../include/c++/6.3.0/bits/stl_vector.h:91:37
	str	r8, [r5, #4]
.Ltmp478:
	.loc	9 656 50 is_stmt 1      @ /usr/bin/../lib/gcc/arm-linux-gnueabihf/6.3.0/../../../../include/c++/6.3.0/bits/stl_vector.h:656:50
	asr	r9, r0, #2
.Ltmp479:
	@DEBUG_VALUE: _Vector_base:__n <- %R9
	@DEBUG_VALUE: _M_create_storage:__n <- %R9
	@DEBUG_VALUE: _M_allocate:__n <- %R9
	@DEBUG_VALUE: allocate:__n <- %R9
	@DEBUG_VALUE: allocate:__n <- %R9
	.loc	9 91 50                 @ /usr/bin/../lib/gcc/arm-linux-gnueabihf/6.3.0/../../../../include/c++/6.3.0/bits/stl_vector.h:91:50
	str	r8, [r5, #8]
.Ltmp480:
	.loc	9 170 9                 @ /usr/bin/../lib/gcc/arm-linux-gnueabihf/6.3.0/../../../../include/c++/6.3.0/bits/stl_vector.h:170:9
	cmp	r8, r0, asr #2
.Ltmp481:
	@DEBUG_VALUE: synthTimbre: <- %R4
	beq	.LBB11_116
.Ltmp482:
@ BB#114:
	@DEBUG_VALUE: synthTimbre: <- %R4
	@DEBUG_VALUE: allocate:__n <- %R9
	@DEBUG_VALUE: allocate:__n <- %R9
	@DEBUG_VALUE: _M_allocate:__n <- %R9
	@DEBUG_VALUE: _M_create_storage:__n <- %R9
	@DEBUG_VALUE: _Vector_base:__n <- %R9
	@DEBUG_VALUE: construct<synthTimbre, const synthTimbre &>:__p <- %R5
	@DEBUG_VALUE: operator=:this <- %R4
	.loc	5 101 6                 @ /usr/bin/../lib/gcc/arm-linux-gnueabihf/6.3.0/../../../../include/c++/6.3.0/ext/new_allocator.h:101:6
	cmp	r9, #1073741824
	bhs	.LBB11_125
.Ltmp483:
@ BB#115:                               @ %_ZNSt16allocator_traitsISaIfEE8allocateERS0_j.exit.i.i.i.i.i.i.i.i
	@DEBUG_VALUE: synthTimbre: <- %R4
	@DEBUG_VALUE: allocate:__n <- %R9
	@DEBUG_VALUE: allocate:__n <- %R9
	@DEBUG_VALUE: _M_allocate:__n <- %R9
	@DEBUG_VALUE: _M_create_storage:__n <- %R9
	@DEBUG_VALUE: _Vector_base:__n <- %R9
	@DEBUG_VALUE: construct<synthTimbre, const synthTimbre &>:__p <- %R5
	@DEBUG_VALUE: operator=:this <- %R4
	.loc	5 104 27                @ /usr/bin/../lib/gcc/arm-linux-gnueabihf/6.3.0/../../../../include/c++/6.3.0/ext/new_allocator.h:104:27
	bl	_Znwj
	mov	r6, r0
.Ltmp484:
.LBB11_116:
	@DEBUG_VALUE: synthTimbre: <- %R4
	@DEBUG_VALUE: allocate:__n <- %R9
	@DEBUG_VALUE: allocate:__n <- %R9
	@DEBUG_VALUE: _M_allocate:__n <- %R9
	@DEBUG_VALUE: _M_create_storage:__n <- %R9
	@DEBUG_VALUE: _Vector_base:__n <- %R9
	@DEBUG_VALUE: construct<synthTimbre, const synthTimbre &>:__p <- %R5
	@DEBUG_VALUE: operator=:this <- %R4
	@DEBUG_VALUE: __uninitialized_copy_a<__gnu_cxx::__normal_iterator<const float *, std::vector<float, std::allocator<float> > >, float *, float>:__result <- %R6
	.loc	9 185 25                @ /usr/bin/../lib/gcc/arm-linux-gnueabihf/6.3.0/../../../../include/c++/6.3.0/bits/stl_vector.h:185:25
	str	r6, [r5]
	.loc	9 187 59                @ /usr/bin/../lib/gcc/arm-linux-gnueabihf/6.3.0/../../../../include/c++/6.3.0/bits/stl_vector.h:187:59
	add	r0, r6, r9, lsl #2
.Ltmp485:
	@DEBUG_VALUE: __copy_move_a<false, const float *, float *>:__simple <- 1
	@DEBUG_VALUE: uninitialized_copy<__gnu_cxx::__normal_iterator<const float *, std::vector<float, std::allocator<float> > >, float *>:__assignable <- 1
	.loc	9 186 26                @ /usr/bin/../lib/gcc/arm-linux-gnueabihf/6.3.0/../../../../include/c++/6.3.0/bits/stl_vector.h:186:26
	str	r6, [r5, #4]
	.loc	9 187 34                @ /usr/bin/../lib/gcc/arm-linux-gnueabihf/6.3.0/../../../../include/c++/6.3.0/bits/stl_vector.h:187:34
	str	r0, [r5, #8]
.Ltmp486:
	.loc	9 558 45                @ /usr/bin/../lib/gcc/arm-linux-gnueabihf/6.3.0/../../../../include/c++/6.3.0/bits/stl_vector.h:558:45
	ldr	r1, [r4]
.Ltmp487:
	.loc	9 576 45                @ /usr/bin/../lib/gcc/arm-linux-gnueabihf/6.3.0/../../../../include/c++/6.3.0/bits/stl_vector.h:576:45
	ldr	r0, [r4, #4]
.Ltmp488:
	.loc	58 366 34               @ /usr/bin/../lib/gcc/arm-linux-gnueabihf/6.3.0/../../../../include/c++/6.3.0/bits/stl_algobase.h:366:34
	sub	r2, r0, r1
	asr	r9, r2, #2
.Ltmp489:
	@DEBUG_VALUE: __copy_m<float>:_Num <- %R9
	.loc	58 367 8                @ /usr/bin/../lib/gcc/arm-linux-gnueabihf/6.3.0/../../../../include/c++/6.3.0/bits/stl_algobase.h:367:8
	cmp	r8, r2, asr #2
	beq	.LBB11_118
.Ltmp490:
@ BB#117:
	@DEBUG_VALUE: __copy_m<float>:_Num <- %R9
	@DEBUG_VALUE: __uninitialized_copy_a<__gnu_cxx::__normal_iterator<const float *, std::vector<float, std::allocator<float> > >, float *, float>:__result <- %R6
	@DEBUG_VALUE: synthTimbre: <- %R4
	@DEBUG_VALUE: construct<synthTimbre, const synthTimbre &>:__p <- %R5
	@DEBUG_VALUE: operator=:this <- %R4
	.loc	58 368 6                @ /usr/bin/../lib/gcc/arm-linux-gnueabihf/6.3.0/../../../../include/c++/6.3.0/bits/stl_algobase.h:368:6
	mov	r0, r6
	bl	memmove
.Ltmp491:
.LBB11_118:                             @ %_ZNSt16allocator_traitsISaI11synthTimbreEE9constructIS0_JRKS0_EEEvRS1_PT_DpOT0_.exit.i
	@DEBUG_VALUE: __copy_m<float>:_Num <- %R9
	@DEBUG_VALUE: __uninitialized_copy_a<__gnu_cxx::__normal_iterator<const float *, std::vector<float, std::allocator<float> > >, float *, float>:__result <- %R6
	@DEBUG_VALUE: synthTimbre: <- %R4
	@DEBUG_VALUE: construct<synthTimbre, const synthTimbre &>:__p <- %R5
	@DEBUG_VALUE: operator=:this <- %R4
	.loc	58 369 20               @ /usr/bin/../lib/gcc/arm-linux-gnueabihf/6.3.0/../../../../include/c++/6.3.0/bits/stl_algobase.h:369:20
	add	r0, r6, r9, lsl #2
.Ltmp492:
	.loc	9 323 33 discriminator 1 @ /usr/bin/../lib/gcc/arm-linux-gnueabihf/6.3.0/../../../../include/c++/6.3.0/bits/stl_vector.h:323:33
	str	r0, [r5, #4]
.Ltmp493:
	.loc	1 175 8                 @ /root/Bela/projects/final_project_v6/render.cpp:175:8
	ldrb	r0, [r4, #12]
	strb	r0, [r5, #12]
.Ltmp494:
	.loc	9 920 6                 @ /usr/bin/../lib/gcc/arm-linux-gnueabihf/6.3.0/../../../../include/c++/6.3.0/bits/stl_vector.h:920:6
	ldr	r0, [r7, #92]
	add	r0, r0, #16
	str	r0, [r7, #92]
	b	.LBB11_120
.Ltmp495:
.LBB11_119:
	@DEBUG_VALUE: construct<synthTimbre, const synthTimbre &>:__p <- %R5
	@DEBUG_VALUE: operator=:this <- %R4
	.loc	9 924 4                 @ /usr/bin/../lib/gcc/arm-linux-gnueabihf/6.3.0/../../../../include/c++/6.3.0/bits/stl_vector.h:924:4
	movw	r1, :lower16:gSine
	add	r0, r7, #88
.Ltmp496:
	@DEBUG_VALUE: push_back:this <- %R0
	movt	r1, :upper16:gSine
	bl	_ZNSt6vectorI11synthTimbreSaIS0_EE19_M_emplace_back_auxIJRKS0_EEEvDpOT_
.Ltmp497:
.LBB11_120:                             @ %_ZNSt6vectorI11synthTimbreSaIS0_EE9push_backERKS0_.exit.preheader
	@DEBUG_VALUE: construct<synthTimbre, const synthTimbre &>:__p <- %R5
	@DEBUG_VALUE: operator=:this <- %R4
	.loc	1 323 14                @ /root/Bela/projects/final_project_v6/render.cpp:323:14
	vldr	s16, .LCPI11_5
	movw	r6, :lower16:gVoices
	.loc	1 324 22                @ /root/Bela/projects/final_project_v6/render.cpp:324:22
	ldr	r0, [r7, #12]
.Ltmp498:
	@DEBUG_VALUE: operator[]:__n <- %R0
	@DEBUG_VALUE: operator[]:__n <- %R0
	.loc	1 323 14                @ /root/Bela/projects/final_project_v6/render.cpp:323:14
	movt	r6, :upper16:gVoices
.Ltmp499:
	.loc	9 781 32                @ /usr/bin/../lib/gcc/arm-linux-gnueabihf/6.3.0/../../../../include/c++/6.3.0/bits/stl_vector.h:781:32
	ldr	r1, [r7, #88]
.Ltmp500:
	.loc	1 323 14                @ /root/Bela/projects/final_project_v6/render.cpp:323:14
	vmov.f32	s1, s16
	.loc	1 323 29 is_stmt 0      @ /root/Bela/projects/final_project_v6/render.cpp:323:29
	vldr	s0, [r10, #32]
	mov	r5, #1
.Ltmp501:
	.loc	1 324 43 is_stmt 1      @ /root/Bela/projects/final_project_v6/render.cpp:324:43
	add	r2, r1, r0, lsl #4
	.loc	1 323 14                @ /root/Bela/projects/final_project_v6/render.cpp:323:14
	mov	r0, r6
.Ltmp502:
	mov	r1, #512
	ldrb	r3, [r2, #12]
	str	r5, [sp]
	bl	_ZN5Voice5setupEfjfRSt6vectorIfSaIfEEbb
	.loc	1 324 22                @ /root/Bela/projects/final_project_v6/render.cpp:324:22
	ldr	r0, [r7, #12]
	.loc	1 323 14                @ /root/Bela/projects/final_project_v6/render.cpp:323:14
	vmov.f32	s1, s16
.Ltmp503:
	.loc	9 781 32                @ /usr/bin/../lib/gcc/arm-linux-gnueabihf/6.3.0/../../../../include/c++/6.3.0/bits/stl_vector.h:781:32
	ldr	r1, [r7, #88]
.Ltmp504:
	@DEBUG_VALUE: i <- 1
	.loc	1 323 29                @ /root/Bela/projects/final_project_v6/render.cpp:323:29
	vldr	s0, [r10, #32]
	.loc	1 324 43                @ /root/Bela/projects/final_project_v6/render.cpp:324:43
	add	r2, r1, r0, lsl #4
	.loc	1 323 14                @ /root/Bela/projects/final_project_v6/render.cpp:323:14
	add	r0, r6, #76
	mov	r1, #512
	ldrb	r3, [r2, #12]
	str	r5, [sp]
	bl	_ZN5Voice5setupEfjfRSt6vectorIfSaIfEEbb
	.loc	1 324 22                @ /root/Bela/projects/final_project_v6/render.cpp:324:22
	ldr	r0, [r7, #12]
	.loc	1 323 14                @ /root/Bela/projects/final_project_v6/render.cpp:323:14
	vmov.f32	s1, s16
.Ltmp505:
	.loc	9 781 32                @ /usr/bin/../lib/gcc/arm-linux-gnueabihf/6.3.0/../../../../include/c++/6.3.0/bits/stl_vector.h:781:32
	ldr	r1, [r7, #88]
.Ltmp506:
	.loc	1 323 29                @ /root/Bela/projects/final_project_v6/render.cpp:323:29
	vldr	s0, [r10, #32]
	.loc	1 324 43                @ /root/Bela/projects/final_project_v6/render.cpp:324:43
	add	r2, r1, r0, lsl #4
	.loc	1 323 14                @ /root/Bela/projects/final_project_v6/render.cpp:323:14
	add	r0, r6, #152
	mov	r1, #512
	ldrb	r3, [r2, #12]
	str	r5, [sp]
	bl	_ZN5Voice5setupEfjfRSt6vectorIfSaIfEEbb
	.loc	1 324 22                @ /root/Bela/projects/final_project_v6/render.cpp:324:22
	ldr	r0, [r7, #12]
	.loc	1 323 14                @ /root/Bela/projects/final_project_v6/render.cpp:323:14
	vmov.f32	s1, s16
.Ltmp507:
	.loc	9 781 32                @ /usr/bin/../lib/gcc/arm-linux-gnueabihf/6.3.0/../../../../include/c++/6.3.0/bits/stl_vector.h:781:32
	ldr	r1, [r7, #88]
.Ltmp508:
	.loc	1 323 29                @ /root/Bela/projects/final_project_v6/render.cpp:323:29
	vldr	s0, [r10, #32]
	.loc	1 324 43                @ /root/Bela/projects/final_project_v6/render.cpp:324:43
	add	r2, r1, r0, lsl #4
	.loc	1 323 14                @ /root/Bela/projects/final_project_v6/render.cpp:323:14
	add	r0, r6, #228
	mov	r1, #512
	ldrb	r3, [r2, #12]
	str	r5, [sp]
	bl	_ZN5Voice5setupEfjfRSt6vectorIfSaIfEEbb
.Ltmp509:
	.loc	1 329 14                @ /root/Bela/projects/final_project_v6/render.cpp:329:14
	movw	r7, :lower16:gPlayer
	movw	r5, :lower16:_ZL9gFilenameB5cxx11
	movt	r7, :upper16:gPlayer
	movt	r5, :upper16:_ZL9gFilenameB5cxx11
.Ltmp510:
	@DEBUG_VALUE: _M_data:this <- %R5
	@DEBUG_VALUE: c_str:this <- %R5
	mov	r0, r7
	mov	r1, r5
	mov	r2, #0
	mov	r3, #0
	mov	r6, #0
	bl	_ZN14MonoFilePlayer5setupERKNSt7__cxx1112basic_stringIcSt11char_traitsIcESaIcEEEbb
.Ltmp511:
	.loc	32 136 28               @ /usr/bin/../lib/gcc/arm-linux-gnueabihf/6.3.0/../../../../include/c++/6.3.0/bits/basic_string.h:136:28
	ldr	r1, [r5]
.Ltmp512:
	.loc	1 329 5                 @ /root/Bela/projects/final_project_v6/render.cpp:329:5
	cmp	r0, #0
	beq	.LBB11_122
.Ltmp513:
@ BB#121:
	@DEBUG_VALUE: c_str:this <- %R5
	@DEBUG_VALUE: _M_data:this <- %R5
	@DEBUG_VALUE: operator=:this <- %R4
	.loc	9 656 66                @ /usr/bin/../lib/gcc/arm-linux-gnueabihf/6.3.0/../../../../include/c++/6.3.0/bits/stl_vector.h:656:66
	ldm	r7, {r0, r2}
	.loc	9 656 50 is_stmt 0      @ /usr/bin/../lib/gcc/arm-linux-gnueabihf/6.3.0/../../../../include/c++/6.3.0/bits/stl_vector.h:656:50
	sub	r0, r2, r0
.Ltmp514:
	.loc	1 337 36 is_stmt 1      @ /root/Bela/projects/final_project_v6/render.cpp:337:36
	vldr	s0, [r10, #32]
.Ltmp515:
	.loc	9 656 50                @ /usr/bin/../lib/gcc/arm-linux-gnueabihf/6.3.0/../../../../include/c++/6.3.0/bits/stl_vector.h:656:50
	asr	r2, r0, #2
.Ltmp516:
	.loc	1 336 5 discriminator 2 @ /root/Bela/projects/final_project_v6/render.cpp:336:5
	movw	r0, :lower16:.L.str.23
	.loc	1 337 10                @ /root/Bela/projects/final_project_v6/render.cpp:337:10
	vmov	s2, r2
	.loc	1 336 5 discriminator 2 @ /root/Bela/projects/final_project_v6/render.cpp:336:5
	movt	r0, :upper16:.L.str.23
	.loc	1 337 10                @ /root/Bela/projects/final_project_v6/render.cpp:337:10
	vcvt.f32.u32	d1, d1
	.loc	1 337 25 is_stmt 0      @ /root/Bela/projects/final_project_v6/render.cpp:337:25
	vdiv.f32	s0, s2, s0
	.loc	1 337 10                @ /root/Bela/projects/final_project_v6/render.cpp:337:10
	vcvt.f64.f32	d16, s0
	.loc	1 336 5 is_stmt 1 discriminator 2 @ /root/Bela/projects/final_project_v6/render.cpp:336:5
	vstr	d16, [sp]
	bl	rt_printf
	.loc	1 341 9                 @ /root/Bela/projects/final_project_v6/render.cpp:341:9
	movw	r0, :lower16:gScope
	.loc	1 341 27 is_stmt 0      @ /root/Bela/projects/final_project_v6/render.cpp:341:27
	vldr	s0, [r10, #32]
	.loc	1 341 9                 @ /root/Bela/projects/final_project_v6/render.cpp:341:9
	movt	r0, :upper16:gScope
	mov	r1, #1
	bl	_ZN5Scope5setupEjf
.Ltmp517:
	@DEBUG_VALUE: i <- 0
	.loc	1 227 53 is_stmt 1      @ /root/Bela/projects/final_project_v6/render.cpp:227:53
	movw	r5, :lower16:.L_MergedGlobals
.Ltmp518:
	.loc	1 346 14                @ /root/Bela/projects/final_project_v6/render.cpp:346:14
	movw	r7, :lower16:gChords
	movw	r6, :lower16:.L_MergedGlobals.5
.Ltmp519:
	.loc	1 227 53                @ /root/Bela/projects/final_project_v6/render.cpp:227:53
	movt	r5, :upper16:.L_MergedGlobals
.Ltmp520:
	.loc	1 346 32                @ /root/Bela/projects/final_project_v6/render.cpp:346:32
	ldr	r0, [r5, #36]
	.loc	1 346 14 is_stmt 0      @ /root/Bela/projects/final_project_v6/render.cpp:346:14
	movt	r6, :upper16:.L_MergedGlobals.5
	movt	r7, :upper16:gChords
	str	r0, [sp]
	mov	r0, r7
	mov	r1, #0
	mov	r2, r6
	mov	r3, #0
	bl	_ZN5Chord5setupEjRSt5arrayIiLj4EEjj
.Ltmp521:
	@DEBUG_VALUE: i <- 1
	.loc	1 346 32                @ /root/Bela/projects/final_project_v6/render.cpp:346:32
	ldr	r0, [r5, #36]
	.loc	1 346 14                @ /root/Bela/projects/final_project_v6/render.cpp:346:14
	mov	r1, #0
	str	r0, [sp]
	add	r0, r7, #28
	mov	r2, r6
	mov	r3, #0
	bl	_ZN5Chord5setupEjRSt5arrayIiLj4EEjj
	.loc	1 346 32                @ /root/Bela/projects/final_project_v6/render.cpp:346:32
	ldr	r0, [r5, #36]
	.loc	1 346 14                @ /root/Bela/projects/final_project_v6/render.cpp:346:14
	mov	r1, #0
	str	r0, [sp]
	add	r0, r7, #56
	mov	r2, r6
	mov	r3, #0
	bl	_ZN5Chord5setupEjRSt5arrayIiLj4EEjj
	.loc	1 346 32                @ /root/Bela/projects/final_project_v6/render.cpp:346:32
	ldr	r0, [r5, #36]
	.loc	1 346 14                @ /root/Bela/projects/final_project_v6/render.cpp:346:14
	mov	r1, #0
	str	r0, [sp]
	add	r0, r7, #84
	mov	r2, r6
	mov	r3, #0
	bl	_ZN5Chord5setupEjRSt5arrayIiLj4EEjj
	.loc	1 346 32                @ /root/Bela/projects/final_project_v6/render.cpp:346:32
	ldr	r0, [r5, #36]
	.loc	1 346 14                @ /root/Bela/projects/final_project_v6/render.cpp:346:14
	mov	r1, #0
	str	r0, [sp]
	add	r0, r7, #112
	mov	r2, r6
	mov	r3, #0
	bl	_ZN5Chord5setupEjRSt5arrayIiLj4EEjj
	.loc	1 346 32                @ /root/Bela/projects/final_project_v6/render.cpp:346:32
	ldr	r0, [r5, #36]
	.loc	1 346 14                @ /root/Bela/projects/final_project_v6/render.cpp:346:14
	mov	r1, #0
	str	r0, [sp]
	add	r0, r7, #140
	mov	r2, r6
	mov	r3, #0
	bl	_ZN5Chord5setupEjRSt5arrayIiLj4EEjj
	.loc	1 346 32                @ /root/Bela/projects/final_project_v6/render.cpp:346:32
	ldr	r0, [r5, #36]
	.loc	1 346 14                @ /root/Bela/projects/final_project_v6/render.cpp:346:14
	mov	r1, #0
	str	r0, [sp]
	add	r0, r7, #168
	mov	r2, r6
	mov	r3, #0
	bl	_ZN5Chord5setupEjRSt5arrayIiLj4EEjj
	.loc	1 346 32                @ /root/Bela/projects/final_project_v6/render.cpp:346:32
	ldr	r0, [r5, #36]
	.loc	1 346 14                @ /root/Bela/projects/final_project_v6/render.cpp:346:14
	mov	r1, #0
	str	r0, [sp]
	add	r0, r7, #196
	mov	r2, r6
	mov	r3, #0
	bl	_ZN5Chord5setupEjRSt5arrayIiLj4EEjj
.Ltmp522:
	.loc	1 248 16 is_stmt 1      @ /root/Bela/projects/final_project_v6/render.cpp:248:16
	movw	r0, :lower16:.L_MergedGlobals.6
	.loc	1 350 50                @ /root/Bela/projects/final_project_v6/render.cpp:350:50
	ldr	r1, [r5, #100]
	.loc	1 248 16                @ /root/Bela/projects/final_project_v6/render.cpp:248:16
	movt	r0, :upper16:.L_MergedGlobals.6
	.loc	1 350 44                @ /root/Bela/projects/final_project_v6/render.cpp:350:44
	vldr	s1, [r5, #44]
	.loc	1 350 27 is_stmt 0      @ /root/Bela/projects/final_project_v6/render.cpp:350:27
	vldr	s0, [r10, #32]
	.loc	1 350 12                @ /root/Bela/projects/final_project_v6/render.cpp:350:12
	add	r0, r0, #80
	bl	_ZN8Envelope5setupEffj
	.loc	1 353 2 is_stmt 1       @ /root/Bela/projects/final_project_v6/render.cpp:353:2
	movw	r0, :lower16:.L.str.24
	movt	r0, :upper16:.L.str.24
	bl	rt_printf
	.loc	1 354 2                 @ /root/Bela/projects/final_project_v6/render.cpp:354:2
	movw	r0, :lower16:.L.str.25
	movt	r0, :upper16:.L.str.25
	bl	rt_printf
.Ltmp523:
	@DEBUG_VALUE: size:this <- %R7
	@DEBUG_VALUE: size:this <- %R7
	mov	r6, #1
	b	.LBB11_123
.Ltmp524:
.LBB11_122:
	@DEBUG_VALUE: c_str:this <- %R5
	@DEBUG_VALUE: _M_data:this <- %R5
	@DEBUG_VALUE: operator=:this <- %R4
	.loc	1 331 6 discriminator 1 @ /root/Bela/projects/final_project_v6/render.cpp:331:6
	movw	r0, :lower16:.L.str.22
	movt	r0, :upper16:.L.str.22
	bl	rt_printf
.Ltmp525:
.LBB11_123:
	.loc	1 357 1                 @ /root/Bela/projects/final_project_v6/render.cpp:357:1
	mov	r0, r6
	sub	sp, r11, #56
	vpop	{d8}
	vpop	{d10, d11}
	add	sp, sp, #4
	pop	{r4, r5, r6, r7, r8, r9, r10, r11, pc}
.LBB11_124:
.Ltmp526:
	.loc	1 277 11                @ /root/Bela/projects/final_project_v6/render.cpp:277:11
	movw	r0, :lower16:stderr
	.loc	1 277 3 is_stmt 0       @ /root/Bela/projects/final_project_v6/render.cpp:277:3
	mov	r1, #116
	.loc	1 277 11                @ /root/Bela/projects/final_project_v6/render.cpp:277:11
	movt	r0, :upper16:stderr
	.loc	1 277 3                 @ /root/Bela/projects/final_project_v6/render.cpp:277:3
	mov	r2, #1
	.loc	1 277 11                @ /root/Bela/projects/final_project_v6/render.cpp:277:11
	ldr	r3, [r0]
	.loc	1 277 3                 @ /root/Bela/projects/final_project_v6/render.cpp:277:3
	movw	r0, :lower16:.L.str.21
	movt	r0, :upper16:.L.str.21
	bl	fwrite
	mov	r6, #0
	b	.LBB11_123
.Ltmp527:
.LBB11_125:                             @ %.noexc.i.i.i.i.i.i
	.loc	5 102 4 is_stmt 1       @ /usr/bin/../lib/gcc/arm-linux-gnueabihf/6.3.0/../../../../include/c++/6.3.0/ext/new_allocator.h:102:4
	mov	lr, pc
	b	_ZSt17__throw_bad_allocv
.Ltmp528:
	.p2align	2
@ BB#126:
.LCPI11_5:
	.long	1128792064              @ float 200
.Lfunc_end11:
	.size	setup, .Lfunc_end11-setup
	.cfi_endproc
	.file	60 "/usr/bin/../lib/gcc/arm-linux-gnueabihf/6.3.0/../../../../include/c++/6.3.0/bits" "stl_uninitialized.h"
	.fnend

	.section	.text._ZNSt6vectorISt5arrayIiLj4EESaIS1_EE9push_backERKS1_,"axG",%progbits,_ZNSt6vectorISt5arrayIiLj4EESaIS1_EE9push_backERKS1_,comdat
	.weak	_ZNSt6vectorISt5arrayIiLj4EESaIS1_EE9push_backERKS1_
	.p2align	2
	.type	_ZNSt6vectorISt5arrayIiLj4EESaIS1_EE9push_backERKS1_,%function
_ZNSt6vectorISt5arrayIiLj4EESaIS1_EE9push_backERKS1_: @ @_ZNSt6vectorISt5arrayIiLj4EESaIS1_EE9push_backERKS1_
.Lfunc_begin12:
	.loc	9 915 0                 @ /usr/bin/../lib/gcc/arm-linux-gnueabihf/6.3.0/../../../../include/c++/6.3.0/bits/stl_vector.h:915:0
	.fnstart
	.cfi_startproc
@ BB#0:
	.save	{r4, r5, r6, r7, r8, r9, r10, r11, lr}
	push	{r4, r5, r6, r7, r8, r9, r10, r11, lr}
.Ltmp529:
	.cfi_def_cfa_offset 36
.Ltmp530:
	.cfi_offset lr, -4
.Ltmp531:
	.cfi_offset r11, -8
.Ltmp532:
	.cfi_offset r10, -12
.Ltmp533:
	.cfi_offset r9, -16
.Ltmp534:
	.cfi_offset r8, -20
.Ltmp535:
	.cfi_offset r7, -24
.Ltmp536:
	.cfi_offset r6, -28
.Ltmp537:
	.cfi_offset r5, -32
.Ltmp538:
	.cfi_offset r4, -36
	.setfp	r11, sp, #28
	add	r11, sp, #28
.Ltmp539:
	.cfi_def_cfa r11, 8
	.pad	#4
	sub	sp, sp, #4
	@DEBUG_VALUE: push_back:this <- %R0
	@DEBUG_VALUE: push_back:__x <- %R1
	mov	r4, r0
.Ltmp540:
	@DEBUG_VALUE: construct<std::array<int, 4>, const std::array<int, 4> &>:__p <- %R0
	@DEBUG_VALUE: construct<std::array<int, 4>, const std::array<int, 4> &>:__p <- %R0
	@DEBUG_VALUE: push_back:this <- %R4
	mov	r8, r1
.Ltmp541:
	@DEBUG_VALUE: push_back:__x <- %R8
	.loc	9 916 20 prologue_end   @ /usr/bin/../lib/gcc/arm-linux-gnueabihf/6.3.0/../../../../include/c++/6.3.0/bits/stl_vector.h:916:20
	ldmib	r4, {r0, r1}
.Ltmp542:
	.loc	9 916 6 is_stmt 0       @ /usr/bin/../lib/gcc/arm-linux-gnueabihf/6.3.0/../../../../include/c++/6.3.0/bits/stl_vector.h:916:6
	cmp	r0, r1
	beq	.LBB12_2
.Ltmp543:
@ BB#1:
	@DEBUG_VALUE: push_back:__x <- %R8
	@DEBUG_VALUE: push_back:this <- %R4
	@DEBUG_VALUE: construct<std::array<int, 4>, const std::array<int, 4> &>:__args <- %R8
	.loc	5 120 23 is_stmt 1 discriminator 1 @ /usr/bin/../lib/gcc/arm-linux-gnueabihf/6.3.0/../../../../include/c++/6.3.0/ext/new_allocator.h:120:23
	vld1.32	{d16, d17}, [r8]
	vst1.32	{d16, d17}, [r0]
.Ltmp544:
	.loc	9 920 6                 @ /usr/bin/../lib/gcc/arm-linux-gnueabihf/6.3.0/../../../../include/c++/6.3.0/bits/stl_vector.h:920:6
	ldr	r0, [r4, #4]
	add	r0, r0, #16
	str	r0, [r4, #4]
.Ltmp545:
	.loc	9 928 7                 @ /usr/bin/../lib/gcc/arm-linux-gnueabihf/6.3.0/../../../../include/c++/6.3.0/bits/stl_vector.h:928:7
	sub	sp, r11, #28
	pop	{r4, r5, r6, r7, r8, r9, r10, r11, pc}
.Ltmp546:
.LBB12_2:
	@DEBUG_VALUE: push_back:__x <- %R8
	@DEBUG_VALUE: push_back:this <- %R4
	@DEBUG_VALUE: _M_check_len:__n <- 1
	@DEBUG_VALUE: size:this <- %R4
	.loc	9 656 66                @ /usr/bin/../lib/gcc/arm-linux-gnueabihf/6.3.0/../../../../include/c++/6.3.0/bits/stl_vector.h:656:66
	ldr	r10, [r4]
	mov	r9, #0
.Ltmp547:
	.loc	9 170 9 discriminator 3 @ /usr/bin/../lib/gcc/arm-linux-gnueabihf/6.3.0/../../../../include/c++/6.3.0/bits/stl_vector.h:170:9
	mov	r7, #0
.Ltmp548:
	.loc	9 656 50                @ /usr/bin/../lib/gcc/arm-linux-gnueabihf/6.3.0/../../../../include/c++/6.3.0/bits/stl_vector.h:656:50
	sub	r1, r0, r10
	asr	r2, r1, #4
.Ltmp549:
	.loc	9 1425 35               @ /usr/bin/../lib/gcc/arm-linux-gnueabihf/6.3.0/../../../../include/c++/6.3.0/bits/stl_vector.h:1425:35
	cmp	r9, r1, asr #4
	movweq	r2, #1
	add	r1, r2, r1, asr #4
	.loc	9 1426 25               @ /usr/bin/../lib/gcc/arm-linux-gnueabihf/6.3.0/../../../../include/c++/6.3.0/bits/stl_vector.h:1426:25
	cmp	r9, r1, lsr #28
	mov	r6, r1
	mvnne	r6, #-268435456
	cmp	r1, r2
	mvnlo	r6, #-268435456
.Ltmp550:
	@DEBUG_VALUE: _M_allocate:__n <- %R6
	@DEBUG_VALUE: _M_emplace_back_aux<const std::array<int, 4> &>:__len <- %R6
	@DEBUG_VALUE: allocate:__n <- %R6
	@DEBUG_VALUE: allocate:__n <- %R6
	.loc	9 170 9                 @ /usr/bin/../lib/gcc/arm-linux-gnueabihf/6.3.0/../../../../include/c++/6.3.0/bits/stl_vector.h:170:9
	cmp	r6, #0
.Ltmp551:
	@DEBUG_VALUE: _M_check_len:__len <- %R1
	beq	.LBB12_5
.Ltmp552:
@ BB#3:
	@DEBUG_VALUE: _M_check_len:__len <- %R1
	@DEBUG_VALUE: allocate:__n <- %R6
	@DEBUG_VALUE: allocate:__n <- %R6
	@DEBUG_VALUE: _M_emplace_back_aux<const std::array<int, 4> &>:__len <- %R6
	@DEBUG_VALUE: _M_allocate:__n <- %R6
	@DEBUG_VALUE: size:this <- %R4
	@DEBUG_VALUE: push_back:__x <- %R8
	@DEBUG_VALUE: push_back:this <- %R4
	.loc	5 101 6                 @ /usr/bin/../lib/gcc/arm-linux-gnueabihf/6.3.0/../../../../include/c++/6.3.0/ext/new_allocator.h:101:6
	cmp	r6, #268435456
	bhs	.LBB12_10
.Ltmp553:
@ BB#4:                                 @ %_ZNSt16allocator_traitsISaISt5arrayIiLj4EEEE8allocateERS2_j.exit.i.i
	@DEBUG_VALUE: _M_check_len:__len <- %R1
	@DEBUG_VALUE: allocate:__n <- %R6
	@DEBUG_VALUE: allocate:__n <- %R6
	@DEBUG_VALUE: _M_emplace_back_aux<const std::array<int, 4> &>:__len <- %R6
	@DEBUG_VALUE: _M_allocate:__n <- %R6
	@DEBUG_VALUE: size:this <- %R4
	@DEBUG_VALUE: push_back:__x <- %R8
	@DEBUG_VALUE: push_back:this <- %R4
	.loc	5 104 46                @ /usr/bin/../lib/gcc/arm-linux-gnueabihf/6.3.0/../../../../include/c++/6.3.0/ext/new_allocator.h:104:46
	lsl	r0, r6, #4
	.loc	5 104 27 is_stmt 0      @ /usr/bin/../lib/gcc/arm-linux-gnueabihf/6.3.0/../../../../include/c++/6.3.0/ext/new_allocator.h:104:27
	bl	_Znwj
.Ltmp554:
	mov	r7, r0
.Ltmp555:
	.loc	9 656 66 is_stmt 1      @ /usr/bin/../lib/gcc/arm-linux-gnueabihf/6.3.0/../../../../include/c++/6.3.0/bits/stl_vector.h:656:66
	ldr	r10, [r4]
	.loc	9 656 40 is_stmt 0      @ /usr/bin/../lib/gcc/arm-linux-gnueabihf/6.3.0/../../../../include/c++/6.3.0/bits/stl_vector.h:656:40
	ldr	r0, [r4, #4]
.Ltmp556:
	@DEBUG_VALUE: size:this <- %R4
.LBB12_5:
	@DEBUG_VALUE: allocate:__n <- %R6
	@DEBUG_VALUE: allocate:__n <- %R6
	@DEBUG_VALUE: _M_emplace_back_aux<const std::array<int, 4> &>:__len <- %R6
	@DEBUG_VALUE: _M_allocate:__n <- %R6
	@DEBUG_VALUE: size:this <- %R4
	@DEBUG_VALUE: push_back:__x <- %R8
	@DEBUG_VALUE: push_back:this <- %R4
	@DEBUG_VALUE: _M_emplace_back_aux<const std::array<int, 4> &>:__new_finish <- %R7
	@DEBUG_VALUE: construct<std::array<int, 4>, const std::array<int, 4> &>:__args <- %R8
	.loc	9 656 50                @ /usr/bin/../lib/gcc/arm-linux-gnueabihf/6.3.0/../../../../include/c++/6.3.0/bits/stl_vector.h:656:50
	sub	r2, r0, r10
.Ltmp557:
	.loc	5 120 23 is_stmt 1 discriminator 1 @ /usr/bin/../lib/gcc/arm-linux-gnueabihf/6.3.0/../../../../include/c++/6.3.0/ext/new_allocator.h:120:23
	vld1.32	{d16, d17}, [r8]
.Ltmp558:
	.file	61 "/usr/bin/../lib/gcc/arm-linux-gnueabihf/6.3.0/../../../../include/c++/6.3.0/bits" "vector.tcc"
	.loc	61 416 58               @ /usr/bin/../lib/gcc/arm-linux-gnueabihf/6.3.0/../../../../include/c++/6.3.0/bits/vector.tcc:416:58
	add	r5, r7, r2
.Ltmp559:
	@DEBUG_VALUE: construct<std::array<int, 4>, const std::array<int, 4> &>:__p <- %R5
	@DEBUG_VALUE: construct<std::array<int, 4>, const std::array<int, 4> &>:__p <- %R5
	@DEBUG_VALUE: _M_emplace_back_aux<const std::array<int, 4> &>:__new_finish <- %R5
	.loc	58 367 8                @ /usr/bin/../lib/gcc/arm-linux-gnueabihf/6.3.0/../../../../include/c++/6.3.0/bits/stl_algobase.h:367:8
	cmp	r9, r2, asr #4
.Ltmp560:
	.loc	5 120 23 discriminator 1 @ /usr/bin/../lib/gcc/arm-linux-gnueabihf/6.3.0/../../../../include/c++/6.3.0/ext/new_allocator.h:120:23
	vst1.32	{d16, d17}, [r5]
.Ltmp561:
	@DEBUG_VALUE: __copy_move_a<true, std::array<int, 4> *, std::array<int, 4> *>:__simple <- 1
	@DEBUG_VALUE: uninitialized_copy<std::move_iterator<std::array<int, 4> *>, std::array<int, 4> *>:__assignable <- 1
	beq	.LBB12_7
.Ltmp562:
@ BB#6:
	@DEBUG_VALUE: _M_emplace_back_aux<const std::array<int, 4> &>:__new_finish <- %R5
	@DEBUG_VALUE: construct<std::array<int, 4>, const std::array<int, 4> &>:__p <- %R5
	@DEBUG_VALUE: construct<std::array<int, 4>, const std::array<int, 4> &>:__p <- %R5
	@DEBUG_VALUE: construct<std::array<int, 4>, const std::array<int, 4> &>:__args <- %R8
	@DEBUG_VALUE: allocate:__n <- %R6
	@DEBUG_VALUE: allocate:__n <- %R6
	@DEBUG_VALUE: _M_emplace_back_aux<const std::array<int, 4> &>:__len <- %R6
	@DEBUG_VALUE: _M_allocate:__n <- %R6
	@DEBUG_VALUE: size:this <- %R4
	@DEBUG_VALUE: push_back:__x <- %R8
	@DEBUG_VALUE: push_back:this <- %R4
	.loc	58 368 6                @ /usr/bin/../lib/gcc/arm-linux-gnueabihf/6.3.0/../../../../include/c++/6.3.0/bits/stl_algobase.h:368:6
	mov	r0, r7
	mov	r1, r10
	bl	memmove
.Ltmp563:
.LBB12_7:
	@DEBUG_VALUE: _M_emplace_back_aux<const std::array<int, 4> &>:__new_finish <- %R5
	@DEBUG_VALUE: construct<std::array<int, 4>, const std::array<int, 4> &>:__p <- %R5
	@DEBUG_VALUE: construct<std::array<int, 4>, const std::array<int, 4> &>:__p <- %R5
	@DEBUG_VALUE: construct<std::array<int, 4>, const std::array<int, 4> &>:__args <- %R8
	@DEBUG_VALUE: allocate:__n <- %R6
	@DEBUG_VALUE: allocate:__n <- %R6
	@DEBUG_VALUE: _M_emplace_back_aux<const std::array<int, 4> &>:__len <- %R6
	@DEBUG_VALUE: _M_allocate:__n <- %R6
	@DEBUG_VALUE: size:this <- %R4
	@DEBUG_VALUE: push_back:__x <- %R8
	@DEBUG_VALUE: push_back:this <- %R4
	.loc	61 425 6                @ /usr/bin/../lib/gcc/arm-linux-gnueabihf/6.3.0/../../../../include/c++/6.3.0/bits/vector.tcc:425:6
	add	r5, r5, #16
.Ltmp564:
	@DEBUG_VALUE: _M_emplace_back_aux<const std::array<int, 4> &>:__new_finish <- %R5
	.loc	9 177 6                 @ /usr/bin/../lib/gcc/arm-linux-gnueabihf/6.3.0/../../../../include/c++/6.3.0/bits/stl_vector.h:177:6
	cmp	r10, #0
	beq	.LBB12_9
.Ltmp565:
@ BB#8:
	@DEBUG_VALUE: _M_emplace_back_aux<const std::array<int, 4> &>:__new_finish <- %R5
	@DEBUG_VALUE: construct<std::array<int, 4>, const std::array<int, 4> &>:__args <- %R8
	@DEBUG_VALUE: allocate:__n <- %R6
	@DEBUG_VALUE: allocate:__n <- %R6
	@DEBUG_VALUE: _M_emplace_back_aux<const std::array<int, 4> &>:__len <- %R6
	@DEBUG_VALUE: _M_allocate:__n <- %R6
	@DEBUG_VALUE: size:this <- %R4
	@DEBUG_VALUE: push_back:__x <- %R8
	@DEBUG_VALUE: push_back:this <- %R4
	.loc	5 110 9                 @ /usr/bin/../lib/gcc/arm-linux-gnueabihf/6.3.0/../../../../include/c++/6.3.0/ext/new_allocator.h:110:9
	mov	r0, r10
	bl	_ZdlPv
.Ltmp566:
.LBB12_9:                               @ %_ZNSt6vectorISt5arrayIiLj4EESaIS1_EE19_M_emplace_back_auxIJRKS1_EEEvDpOT_.exit
	@DEBUG_VALUE: _M_emplace_back_aux<const std::array<int, 4> &>:__new_finish <- %R5
	@DEBUG_VALUE: construct<std::array<int, 4>, const std::array<int, 4> &>:__args <- %R8
	@DEBUG_VALUE: allocate:__n <- %R6
	@DEBUG_VALUE: allocate:__n <- %R6
	@DEBUG_VALUE: _M_emplace_back_aux<const std::array<int, 4> &>:__len <- %R6
	@DEBUG_VALUE: _M_allocate:__n <- %R6
	@DEBUG_VALUE: size:this <- %R4
	@DEBUG_VALUE: push_back:__x <- %R8
	@DEBUG_VALUE: push_back:this <- %R4
	.loc	61 441 25               @ /usr/bin/../lib/gcc/arm-linux-gnueabihf/6.3.0/../../../../include/c++/6.3.0/bits/vector.tcc:441:25
	str	r7, [r4]
	.loc	61 443 48               @ /usr/bin/../lib/gcc/arm-linux-gnueabihf/6.3.0/../../../../include/c++/6.3.0/bits/vector.tcc:443:48
	add	r0, r7, r6, lsl #4
.Ltmp567:
	@DEBUG_VALUE: size:this <- %R4
	.loc	61 442 26               @ /usr/bin/../lib/gcc/arm-linux-gnueabihf/6.3.0/../../../../include/c++/6.3.0/bits/vector.tcc:442:26
	str	r5, [r4, #4]
	.loc	61 443 34               @ /usr/bin/../lib/gcc/arm-linux-gnueabihf/6.3.0/../../../../include/c++/6.3.0/bits/vector.tcc:443:34
	str	r0, [r4, #8]
.Ltmp568:
	.loc	9 928 7                 @ /usr/bin/../lib/gcc/arm-linux-gnueabihf/6.3.0/../../../../include/c++/6.3.0/bits/stl_vector.h:928:7
	sub	sp, r11, #28
	pop	{r4, r5, r6, r7, r8, r9, r10, r11, pc}
.Ltmp569:
.LBB12_10:
	@DEBUG_VALUE: _M_check_len:__len <- %R1
	@DEBUG_VALUE: allocate:__n <- %R6
	@DEBUG_VALUE: allocate:__n <- %R6
	@DEBUG_VALUE: _M_emplace_back_aux<const std::array<int, 4> &>:__len <- %R6
	@DEBUG_VALUE: _M_allocate:__n <- %R6
	@DEBUG_VALUE: size:this <- %R4
	@DEBUG_VALUE: push_back:__x <- %R8
	@DEBUG_VALUE: push_back:this <- %R4
	.loc	5 102 4                 @ /usr/bin/../lib/gcc/arm-linux-gnueabihf/6.3.0/../../../../include/c++/6.3.0/ext/new_allocator.h:102:4
	mov	lr, pc
	b	_ZSt17__throw_bad_allocv
.Ltmp570:
.Lfunc_end12:
	.size	_ZNSt6vectorISt5arrayIiLj4EESaIS1_EE9push_backERKS1_, .Lfunc_end12-_ZNSt6vectorISt5arrayIiLj4EESaIS1_EE9push_backERKS1_
	.cfi_endproc
	.fnend

	.text
	.globl	render
	.p2align	3
	.type	render,%function
render:                                 @ @render
.Lfunc_begin13:
	.loc	1 360 0                 @ /root/Bela/projects/final_project_v6/render.cpp:360:0
	.fnstart
	.cfi_startproc
@ BB#0:
	.save	{r4, r5, r6, r7, r8, r9, r10, r11, lr}
	push	{r4, r5, r6, r7, r8, r9, r10, r11, lr}
.Ltmp571:
	.cfi_def_cfa_offset 36
.Ltmp572:
	.cfi_offset lr, -4
.Ltmp573:
	.cfi_offset r11, -8
.Ltmp574:
	.cfi_offset r10, -12
.Ltmp575:
	.cfi_offset r9, -16
.Ltmp576:
	.cfi_offset r8, -20
.Ltmp577:
	.cfi_offset r7, -24
.Ltmp578:
	.cfi_offset r6, -28
.Ltmp579:
	.cfi_offset r5, -32
.Ltmp580:
	.cfi_offset r4, -36
	.setfp	r11, sp, #28
	add	r11, sp, #28
.Ltmp581:
	.cfi_def_cfa r11, 8
	.pad	#4
	sub	sp, sp, #4
	.vsave	{d8, d9, d10, d11, d12, d13, d14, d15}
	vpush	{d8, d9, d10, d11, d12, d13, d14, d15}
.Ltmp582:
	.cfi_offset d15, -48
.Ltmp583:
	.cfi_offset d14, -56
.Ltmp584:
	.cfi_offset d13, -64
.Ltmp585:
	.cfi_offset d12, -72
.Ltmp586:
	.cfi_offset d11, -80
.Ltmp587:
	.cfi_offset d10, -88
.Ltmp588:
	.cfi_offset d9, -96
.Ltmp589:
	.cfi_offset d8, -104
	.pad	#24
	sub	sp, sp, #24
	@DEBUG_VALUE: render:context <- %R0
	@DEBUG_VALUE: render:userData <- %R1
	mov	r8, r0
.Ltmp590:
	@DEBUG_VALUE: n <- 0
	@DEBUG_VALUE: render:context <- %R8
	.loc	1 361 42 prologue_end discriminator 1 @ /root/Bela/projects/final_project_v6/render.cpp:361:42
	ldr	r0, [r8, #20]
	.loc	1 361 5 is_stmt 0 discriminator 1 @ /root/Bela/projects/final_project_v6/render.cpp:361:5
	cmp	r0, #0
	beq	.LBB13_137
.Ltmp591:
@ BB#1:                                 @ %.lr.ph230
	@DEBUG_VALUE: render:context <- %R8
	@DEBUG_VALUE: render:userData <- %R1
	.loc	1 466 10 is_stmt 1      @ /root/Bela/projects/final_project_v6/render.cpp:466:10
	movw	r5, :lower16:.L_MergedGlobals
.Ltmp592:
	.loc	1 207 19                @ /root/Bela/projects/final_project_v6/render.cpp:207:19
	movw	r7, :lower16:.L_MergedGlobals.4
.Ltmp593:
	.loc	1 735 20                @ /root/Bela/projects/final_project_v6/render.cpp:735:20
	movw	r0, :lower16:.L_MergedGlobals.6
.Ltmp594:
	.loc	1 521 31                @ /root/Bela/projects/final_project_v6/render.cpp:521:31
	vldr	s22, .LCPI13_14
.Ltmp595:
	.file	62 "./include" "Utilities.h"
	.loc	62 73 44                @ ./include/Utilities.h:73:44
	vldr	s24, .LCPI13_15
.Ltmp596:
	.loc	1 735 20                @ /root/Bela/projects/final_project_v6/render.cpp:735:20
	movt	r0, :upper16:.L_MergedGlobals.6
.Ltmp597:
	.loc	62 73 64                @ ./include/Utilities.h:73:64
	vldr	s26, .LCPI13_16
.Ltmp598:
	.loc	1 466 10                @ /root/Bela/projects/final_project_v6/render.cpp:466:10
	movt	r5, :upper16:.L_MergedGlobals
.Ltmp599:
	.loc	1 442 46                @ /root/Bela/projects/final_project_v6/render.cpp:442:46
	vldr	d14, .LCPI13_17
.Ltmp600:
	.loc	1 207 19                @ /root/Bela/projects/final_project_v6/render.cpp:207:19
	movt	r7, :upper16:.L_MergedGlobals.4
	mov	r10, #0
	mov	r9, #0
.Ltmp601:
	.loc	1 735 20                @ /root/Bela/projects/final_project_v6/render.cpp:735:20
	add	r0, r0, #80
.Ltmp602:
	.loc	1 730 10                @ /root/Bela/projects/final_project_v6/render.cpp:730:10
	str	r0, [sp, #4]            @ 4-byte Spill
	str	r8, [sp]                @ 4-byte Spill
	b	.LBB13_7
.Ltmp603:
	.p2align	2
@ BB#2:
.LCPI13_14:
	.long	1138491392              @ float 440
	.p2align	2
@ BB#3:
.LCPI13_15:
	.long	1117057545              @ float 74.4727249
	.p2align	2
@ BB#4:
.LCPI13_16:
	.long	3262119936              @ float -60
	.p2align	3
@ BB#5:
.LCPI13_17:
	.long	2576980378              @ double 0.050000000000000003
	.long	1068079513
	.p2align	3
@ BB#6:
.LCPI13_25:
	.long	1431655765              @ double 0.083333333333333329
	.long	1068848469
.LBB13_7:                               @ =>This Loop Header: Depth=1
                                        @     Child Loop BB13_132 Depth 2
                                        @     Child Loop BB13_135 Depth 2
.Ltmp604:
	@DEBUG_VALUE: out <- 0.000000e+00
	@DEBUG_VALUE: digitalWriteOnce:frame <- %R9
	ldr	r0, [r8, #16]
.Ltmp605:
	.loc	30 1325 12              @ ./include/Bela.h:1325:12
	ldr	r1, [r0, r9, lsl #2]
.Ltmp606:
	.loc	30 1325 56 is_stmt 0    @ ./include/Bela.h:1325:56
	ubfx	r0, r1, #17, #1
.Ltmp607:
	@DEBUG_VALUE: gButton1Status <- [%SP+16]
	.loc	30 1325 56              @ ./include/Bela.h:1325:56
	str	r0, [sp, #16]           @ 4-byte Spill
	str	r1, [sp, #8]            @ 4-byte Spill
	ubfx	r4, r1, #16, #1
.Ltmp608:
	@DEBUG_VALUE: gButton0Status <- %R4
	.loc	1 373 14 is_stmt 1      @ /root/Bela/projects/final_project_v6/render.cpp:373:14
	ands	r0, r9, #1
.Ltmp609:
	.loc	1 373 10 is_stmt 0      @ /root/Bela/projects/final_project_v6/render.cpp:373:10
	str	r0, [sp, #12]           @ 4-byte Spill
	bne	.LBB13_26
.Ltmp610:
@ BB#8:                                 @   in Loop: Header=BB13_7 Depth=1
	@DEBUG_VALUE: gButton0Status <- %R4
	@DEBUG_VALUE: gButton1Status <- [%SP+16]
	@DEBUG_VALUE: digitalWriteOnce:frame <- %R9
	ldr	r1, [r8, #40]
.Ltmp611:
	.loc	1 375 40 is_stmt 1      @ /root/Bela/projects/final_project_v6/render.cpp:375:40
	lsr	r6, r9, #1
	ldr	r0, [r8, #8]
.Ltmp612:
	.loc	1 380 8                 @ /root/Bela/projects/final_project_v6/render.cpp:380:8
	ldrb	r2, [r5, #2]
.Ltmp613:
	.loc	30 1287 33              @ ./include/Bela.h:1287:33
	mul	r1, r1, r6
.Ltmp614:
	.loc	1 380 8                 @ /root/Bela/projects/final_project_v6/render.cpp:380:8
	cmp	r2, #0
	add	r0, r0, r1, lsl #2
.Ltmp615:
	@DEBUG_VALUE: input3 <- %S18
	@DEBUG_VALUE: input2 <- %S30
	@DEBUG_VALUE: input1 <- %S16
	@DEBUG_VALUE: input0 <- %S20
	.loc	30 1287 9               @ ./include/Bela.h:1287:9
	vldr	s20, [r0]
.Ltmp616:
	.loc	30 1287 9 is_stmt 0     @ ./include/Bela.h:1287:9
	vldr	s16, [r0, #4]
.Ltmp617:
	.loc	30 1287 9               @ ./include/Bela.h:1287:9
	vldr	s30, [r0, #8]
.Ltmp618:
	.loc	30 1287 9               @ ./include/Bela.h:1287:9
	vldr	s18, [r0, #12]
.Ltmp619:
	beq	.LBB13_10
.Ltmp620:
@ BB#9:                                 @   in Loop: Header=BB13_7 Depth=1
	@DEBUG_VALUE: gButton0Status <- %R4
	@DEBUG_VALUE: gButton1Status <- [%SP+16]
	@DEBUG_VALUE: digitalWriteOnce:frame <- %R9
	@DEBUG_VALUE: map:in_min <- 0.000000e+00
	@DEBUG_VALUE: map:in_max <- 8.056641e-01
	.loc	62 73 44 is_stmt 1      @ ./include/Utilities.h:73:44
	vldr	s0, .LCPI13_18
	vmul.f32	d0, d10, d0
.Ltmp621:
	@DEBUG_VALUE: rootKnob <- %S0
	.loc	1 384 20                @ /root/Bela/projects/final_project_v6/render.cpp:384:20
                                        @ kill: %S0<def> %S0<kill> %D0<kill>
.Ltmp622:
	bl	floorf
.Ltmp623:
                                        @ kill: %S0<def> %S0<kill> %D0<def>
	.loc	1 383 20                @ /root/Bela/projects/final_project_v6/render.cpp:383:20
	ldr	r0, [r5, #24]
.Ltmp624:
	@DEBUG_VALUE: prevRoot <- %R0
	.loc	1 384 20                @ /root/Bela/projects/final_project_v6/render.cpp:384:20
	vcvt.u32.f32	d0, d0
	vmov	r1, s0
	.loc	1 384 18 is_stmt 0      @ /root/Bela/projects/final_project_v6/render.cpp:384:18
	str	r1, [r5, #24]
	.loc	1 385 9 is_stmt 1       @ /root/Bela/projects/final_project_v6/render.cpp:385:9
	cmp	r0, r1
	movne	r0, #0
.Ltmp625:
	.loc	1 386 24                @ /root/Bela/projects/final_project_v6/render.cpp:386:24
	strne	r0, [r7, #24]
.Ltmp626:
.LBB13_10:                              @   in Loop: Header=BB13_7 Depth=1
	@DEBUG_VALUE: gButton0Status <- %R4
	@DEBUG_VALUE: digitalWriteOnce:frame <- %R9
	.loc	1 388 8                 @ /root/Bela/projects/final_project_v6/render.cpp:388:8
	ldrb	r0, [r5, #3]
.Ltmp627:
	.loc	1 388 8 is_stmt 0       @ /root/Bela/projects/final_project_v6/render.cpp:388:8
	cmp	r0, #0
	beq	.LBB13_12
.Ltmp628:
@ BB#11:                                @   in Loop: Header=BB13_7 Depth=1
	@DEBUG_VALUE: gButton0Status <- %R4
	@DEBUG_VALUE: digitalWriteOnce:frame <- %R9
	@DEBUG_VALUE: map:in_min <- 0.000000e+00
	@DEBUG_VALUE: map:in_max <- 8.056641e-01
	.loc	1 390 57 is_stmt 1      @ /root/Bela/projects/final_project_v6/render.cpp:390:57
	ldr	r0, [r7, #4]
.Ltmp629:
	.loc	62 73 22                @ ./include/Utilities.h:73:22
	vldr	s0, .LCPI13_19
.Ltmp630:
	.loc	1 390 71                @ /root/Bela/projects/final_project_v6/render.cpp:390:71
	sub	r0, r0, #1
.Ltmp631:
	.loc	62 73 22                @ ./include/Utilities.h:73:22
	vmul.f32	d16, d10, d0
.Ltmp632:
	.loc	1 390 56                @ /root/Bela/projects/final_project_v6/render.cpp:390:56
	vmov	s0, r0
	vcvt.f32.s32	d17, d0
.Ltmp633:
	.loc	62 73 44                @ ./include/Utilities.h:73:44
	vmul.f32	d0, d16, d17
.Ltmp634:
	@DEBUG_VALUE: qualityKnob <- %S0
	.loc	1 392 23                @ /root/Bela/projects/final_project_v6/render.cpp:392:23
                                        @ kill: %S0<def> %S0<kill> %D0<kill>
.Ltmp635:
	bl	floorf
                                        @ kill: %S0<def> %S0<kill> %D0<def>
	.loc	1 391 23                @ /root/Bela/projects/final_project_v6/render.cpp:391:23
	ldr	r0, [r5, #28]
.Ltmp636:
	@DEBUG_VALUE: prevQuality <- %R0
	.loc	1 392 23                @ /root/Bela/projects/final_project_v6/render.cpp:392:23
	vcvt.u32.f32	d0, d0
	vmov	r1, s0
	.loc	1 392 21 is_stmt 0      @ /root/Bela/projects/final_project_v6/render.cpp:392:21
	str	r1, [r5, #28]
	.loc	1 393 9 is_stmt 1       @ /root/Bela/projects/final_project_v6/render.cpp:393:9
	cmp	r0, r1
	movne	r0, #0
.Ltmp637:
	.loc	1 394 24                @ /root/Bela/projects/final_project_v6/render.cpp:394:24
	strne	r0, [r7, #24]
.Ltmp638:
.LBB13_12:                              @   in Loop: Header=BB13_7 Depth=1
	@DEBUG_VALUE: gButton0Status <- %R4
	@DEBUG_VALUE: digitalWriteOnce:frame <- %R9
	.loc	1 396 8                 @ /root/Bela/projects/final_project_v6/render.cpp:396:8
	ldrb	r0, [r5, #4]
.Ltmp639:
	.loc	1 396 8 is_stmt 0       @ /root/Bela/projects/final_project_v6/render.cpp:396:8
	cmp	r0, #0
	beq	.LBB13_14
.Ltmp640:
@ BB#13:                                @   in Loop: Header=BB13_7 Depth=1
	@DEBUG_VALUE: gButton0Status <- %R4
	@DEBUG_VALUE: digitalWriteOnce:frame <- %R9
	@DEBUG_VALUE: map:in_min <- 0.000000e+00
	@DEBUG_VALUE: map:in_max <- 8.056641e-01
	.loc	62 73 44 is_stmt 1      @ ./include/Utilities.h:73:44
	vldr	s0, .LCPI13_20
	vmul.f32	d0, d10, d0
.Ltmp641:
	@DEBUG_VALUE: inversionKnob <- %S0
	.loc	1 400 25                @ /root/Bela/projects/final_project_v6/render.cpp:400:25
                                        @ kill: %S0<def> %S0<kill> %D0<kill>
.Ltmp642:
	bl	floorf
                                        @ kill: %S0<def> %S0<kill> %D0<def>
	.loc	1 399 25                @ /root/Bela/projects/final_project_v6/render.cpp:399:25
	ldr	r0, [r5, #32]
.Ltmp643:
	@DEBUG_VALUE: prevInversion <- %R0
	.loc	1 400 25                @ /root/Bela/projects/final_project_v6/render.cpp:400:25
	vcvt.u32.f32	d0, d0
	vmov	r1, s0
	.loc	1 400 23 is_stmt 0      @ /root/Bela/projects/final_project_v6/render.cpp:400:23
	str	r1, [r5, #32]
	.loc	1 401 9 is_stmt 1       @ /root/Bela/projects/final_project_v6/render.cpp:401:9
	cmp	r0, r1
	movne	r0, #0
.Ltmp644:
	.loc	1 402 24                @ /root/Bela/projects/final_project_v6/render.cpp:402:24
	strne	r0, [r7, #24]
.Ltmp645:
.LBB13_14:                              @   in Loop: Header=BB13_7 Depth=1
	@DEBUG_VALUE: gButton0Status <- %R4
	@DEBUG_VALUE: digitalWriteOnce:frame <- %R9
	.loc	1 404 8                 @ /root/Bela/projects/final_project_v6/render.cpp:404:8
	ldrb	r0, [r5, #5]
.Ltmp646:
	.loc	1 404 8 is_stmt 0       @ /root/Bela/projects/final_project_v6/render.cpp:404:8
	cmp	r0, #0
	beq	.LBB13_16
.Ltmp647:
@ BB#15:                                @   in Loop: Header=BB13_7 Depth=1
	@DEBUG_VALUE: gButton0Status <- %R4
	@DEBUG_VALUE: digitalWriteOnce:frame <- %R9
	@DEBUG_VALUE: map:in_min <- 0.000000e+00
	@DEBUG_VALUE: map:in_max <- 8.056641e-01
	.loc	62 73 44 is_stmt 1      @ ./include/Utilities.h:73:44
	vldr	s0, .LCPI13_21
	vmul.f32	d0, d10, d0
.Ltmp648:
	@DEBUG_VALUE: envelopeKnob <- %S0
	.loc	1 408 24                @ /root/Bela/projects/final_project_v6/render.cpp:408:24
                                        @ kill: %S0<def> %S0<kill> %D0<kill>
.Ltmp649:
	bl	floorf
                                        @ kill: %S0<def> %S0<kill> %D0<def>
	.loc	1 407 31                @ /root/Bela/projects/final_project_v6/render.cpp:407:31
	ldr	r0, [r5, #88]
.Ltmp650:
	@DEBUG_VALUE: prevHoveredEnvelope <- %R0
	.loc	1 408 24                @ /root/Bela/projects/final_project_v6/render.cpp:408:24
	vcvt.u32.f32	d0, d0
	vmov	r1, s0
	.loc	1 408 22 is_stmt 0      @ /root/Bela/projects/final_project_v6/render.cpp:408:22
	str	r1, [r5, #88]
	.loc	1 409 9 is_stmt 1       @ /root/Bela/projects/final_project_v6/render.cpp:409:9
	cmp	r0, r1
	movne	r0, #0
.Ltmp651:
	.loc	1 410 24                @ /root/Bela/projects/final_project_v6/render.cpp:410:24
	strne	r0, [r7, #24]
.Ltmp652:
.LBB13_16:                              @   in Loop: Header=BB13_7 Depth=1
	@DEBUG_VALUE: gButton0Status <- %R4
	@DEBUG_VALUE: digitalWriteOnce:frame <- %R9
	.loc	1 413 9                 @ /root/Bela/projects/final_project_v6/render.cpp:413:9
	ldrb	r0, [r5, #13]
	.loc	1 413 26 is_stmt 0 discriminator 1 @ /root/Bela/projects/final_project_v6/render.cpp:413:26
	ldrb	r1, [r5, #14]
	.loc	1 413 22                @ /root/Bela/projects/final_project_v6/render.cpp:413:22
	orr	r0, r1, r0
	tst	r0, #255
	bne	.LBB13_19
.Ltmp653:
@ BB#17:                                @   in Loop: Header=BB13_7 Depth=1
	@DEBUG_VALUE: gButton0Status <- %R4
	@DEBUG_VALUE: digitalWriteOnce:frame <- %R9
	@DEBUG_VALUE: map:in_min <- 0.000000e+00
	@DEBUG_VALUE: map:in_max <- 8.056641e-01
	.loc	62 73 44 is_stmt 1      @ ./include/Utilities.h:73:44
	vldr	s0, .LCPI13_22
	.loc	62 73 64 is_stmt 0      @ ./include/Utilities.h:73:64
	vmov.f32	d17, #3.000000e+01
	.loc	62 73 44                @ ./include/Utilities.h:73:44
	vmul.f32	d16, d8, d0
	.loc	62 73 64                @ ./include/Utilities.h:73:64
	vadd.f32	d0, d16, d17
.Ltmp654:
	@DEBUG_VALUE: bpm <- %S0
	.loc	1 416 27 is_stmt 1 discriminator 1 @ /root/Bela/projects/final_project_v6/render.cpp:416:27
                                        @ kill: %S0<def> %S0<kill> %D0<kill>
.Ltmp655:
	bl	floorf
                                        @ kill: %S0<def> %S0<kill> %D0<def>
	.loc	1 416 27 is_stmt 0      @ /root/Bela/projects/final_project_v6/render.cpp:416:27
	vcvt.u32.f32	d16, d0
.Ltmp656:
	.loc	1 419 19 is_stmt 1      @ /root/Bela/projects/final_project_v6/render.cpp:419:19
	vldr	s0, [r5, #44]
	.loc	1 419 9 is_stmt 0       @ /root/Bela/projects/final_project_v6/render.cpp:419:9
	vcvt.f32.u32	d8, d16
.Ltmp657:
	.loc	1 419 9                 @ /root/Bela/projects/final_project_v6/render.cpp:419:9
	vcmpe.f32	s16, s0
	vmrs	APSR_nzcv, fpscr
	beq	.LBB13_19
.Ltmp658:
@ BB#18:                                @   in Loop: Header=BB13_7 Depth=1
	@DEBUG_VALUE: gButton0Status <- %R4
	@DEBUG_VALUE: digitalWriteOnce:frame <- %R9
	.loc	1 421 11 is_stmt 1      @ /root/Bela/projects/final_project_v6/render.cpp:421:11
	vstr	s16, [r5, #44]
	.loc	1 422 39                @ /root/Bela/projects/final_project_v6/render.cpp:422:39
	vldr	s0, [r8, #32]
	.loc	1 422 28 is_stmt 0      @ /root/Bela/projects/final_project_v6/render.cpp:422:28
	vldr	s2, .LCPI13_23
	vmul.f32	d0, d0, d1
	.loc	1 422 55                @ /root/Bela/projects/final_project_v6/render.cpp:422:55
	vdiv.f32	s0, s0, s16
	.loc	1 422 25                @ /root/Bela/projects/final_project_v6/render.cpp:422:25
	vcvt.u32.f32	d0, d0
	vmov	r0, s0
	.loc	1 422 23                @ /root/Bela/projects/final_project_v6/render.cpp:422:23
	str	r0, [r5, #52]
	.loc	1 423 42 is_stmt 1      @ /root/Bela/projects/final_project_v6/render.cpp:423:42
	ldr	r1, [r5, #64]
	.loc	1 423 40 is_stmt 0      @ /root/Bela/projects/final_project_v6/render.cpp:423:40
	bl	__aeabi_uidiv
	.loc	1 424 16 is_stmt 1      @ /root/Bela/projects/final_project_v6/render.cpp:424:16
	vmov.f32	s0, s16
	.loc	1 423 21                @ /root/Bela/projects/final_project_v6/render.cpp:423:21
	str	r0, [r5, #56]
	.loc	1 424 16                @ /root/Bela/projects/final_project_v6/render.cpp:424:16
	ldr	r0, [sp, #4]            @ 4-byte Reload
	bl	_ZN8Envelope6setBpmEf
.Ltmp659:
.LBB13_19:                              @   in Loop: Header=BB13_7 Depth=1
	@DEBUG_VALUE: gButton0Status <- %R4
	@DEBUG_VALUE: digitalWriteOnce:frame <- %R9
	.loc	1 431 9                 @ /root/Bela/projects/final_project_v6/render.cpp:431:9
	ldrb	r0, [r5]
.Ltmp660:
	.loc	1 431 8 is_stmt 0       @ /root/Bela/projects/final_project_v6/render.cpp:431:8
	cmp	r0, #0
	bne	.LBB13_21
.Ltmp661:
@ BB#20:                                @   in Loop: Header=BB13_7 Depth=1
	@DEBUG_VALUE: gButton0Status <- %R4
	@DEBUG_VALUE: digitalWriteOnce:frame <- %R9
	@DEBUG_VALUE: map:in_min <- 0.000000e+00
	@DEBUG_VALUE: map:in_max <- 8.056641e-01
	.loc	1 434 54 is_stmt 1      @ /root/Bela/projects/final_project_v6/render.cpp:434:54
	vldr	s0, [r5, #112]
	.loc	1 434 85 is_stmt 0      @ /root/Bela/projects/final_project_v6/render.cpp:434:85
	vldr	s2, [r5, #116]
.Ltmp662:
	.loc	62 73 22 is_stmt 1      @ ./include/Utilities.h:73:22
	vldr	s4, .LCPI13_19
	.loc	62 73 33 is_stmt 0      @ ./include/Utilities.h:73:33
	vsub.f32	d17, d1, d0
	.loc	62 73 64                @ ./include/Utilities.h:73:64
	vldr	s2, .LCPI13_24
	.loc	62 73 22                @ ./include/Utilities.h:73:22
	vmul.f32	d16, d15, d2
	.loc	62 73 64                @ ./include/Utilities.h:73:64
	vadd.f32	d18, d0, d1
	.loc	62 73 44                @ ./include/Utilities.h:73:44
	vmul.f32	d16, d16, d17
.Ltmp663:
	@DEBUG_VALUE: cutoffInterval <- undef
	.loc	1 521 66 is_stmt 1      @ /root/Bela/projects/final_project_v6/render.cpp:521:66
	vldr	d17, .LCPI13_25
.Ltmp664:
	.loc	1 435 56                @ /root/Bela/projects/final_project_v6/render.cpp:435:56
	vadd.f32	d0, d18, d16
	.loc	1 435 40 is_stmt 0      @ /root/Bela/projects/final_project_v6/render.cpp:435:40
	vcvt.f64.f32	d16, s0
	.loc	1 435 62                @ /root/Bela/projects/final_project_v6/render.cpp:435:62
	vmul.f64	d16, d16, d17
	.loc	1 435 40                @ /root/Bela/projects/final_project_v6/render.cpp:435:40
	vcvt.f32.f64	s0, d16
	.loc	1 435 32 discriminator 1 @ /root/Bela/projects/final_project_v6/render.cpp:435:32
	bl	exp2f
                                        @ kill: %S0<def> %S0<kill> %D0<def>
.Ltmp665:
	.loc	15 85 20 is_stmt 1      @ ./libraries/Biquad/Biquad.h:85:20
	movw	r0, :lower16:.L_MergedGlobals.7
.Ltmp666:
	.loc	1 435 24                @ /root/Bela/projects/final_project_v6/render.cpp:435:24
	vmul.f32	d0, d0, d11
.Ltmp667:
	@DEBUG_VALUE: cutoffFreq <- %S0
	.loc	15 85 20                @ ./libraries/Biquad/Biquad.h:85:20
	movt	r0, :upper16:.L_MergedGlobals.7
.Ltmp668:
	.loc	1 436 26                @ /root/Bela/projects/final_project_v6/render.cpp:436:26
	vcvt.f64.f32	d0, s0
.Ltmp669:
	.loc	1 436 20 is_stmt 0      @ /root/Bela/projects/final_project_v6/render.cpp:436:20
	bl	_ZN6Biquad5setFcEd
.Ltmp670:
.LBB13_21:                              @   in Loop: Header=BB13_7 Depth=1
	@DEBUG_VALUE: gButton0Status <- %R4
	@DEBUG_VALUE: digitalWriteOnce:frame <- %R9
	@DEBUG_VALUE: map:in_min <- 0.000000e+00
	@DEBUG_VALUE: map:in_max <- 8.056641e-01
	.loc	62 73 44 is_stmt 1      @ ./include/Utilities.h:73:44
	vmul.f32	d16, d9, d12
	.loc	62 73 64 is_stmt 0      @ ./include/Utilities.h:73:64
	vadd.f32	d0, d16, d13
.Ltmp671:
	@DEBUG_VALUE: masterLevel <- %S0
	.loc	1 442 34 is_stmt 1      @ /root/Bela/projects/final_project_v6/render.cpp:442:34
	vcvt.f64.f32	d16, s0
	.loc	1 442 46 is_stmt 0      @ /root/Bela/projects/final_project_v6/render.cpp:442:46
	vmul.f64	d16, d16, d14
	.loc	1 442 34                @ /root/Bela/projects/final_project_v6/render.cpp:442:34
	vcvt.f32.f64	s2, d16
	.loc	1 442 23                @ /root/Bela/projects/final_project_v6/render.cpp:442:23
	vmov.f32	d0, #1.000000e+01
.Ltmp672:
	vmov.f32	s1, s2
	bl	powf
	.loc	1 442 21                @ /root/Bela/projects/final_project_v6/render.cpp:442:21
	vstr	s0, [r5, #40]
.Ltmp673:
	.loc	1 457 8 is_stmt 1       @ /root/Bela/projects/final_project_v6/render.cpp:457:8
	ldrb	r7, [r5, #13]
.Ltmp674:
	.loc	1 447 8                 @ /root/Bela/projects/final_project_v6/render.cpp:447:8
	ldr	r0, [r5, #92]
	.loc	1 447 41 is_stmt 0      @ /root/Bela/projects/final_project_v6/render.cpp:447:41
	cmp	r0, #1
	beq	.LBB13_23
.Ltmp675:
@ BB#22:                                @   in Loop: Header=BB13_7 Depth=1
	@DEBUG_VALUE: gButton0Status <- %R4
	@DEBUG_VALUE: digitalWriteOnce:frame <- %R9
	.loc	1 447 44 discriminator 1 @ /root/Bela/projects/final_project_v6/render.cpp:447:44
	ldrb	r0, [r5, #14]
	.loc	1 447 41                @ /root/Bela/projects/final_project_v6/render.cpp:447:41
	orr	r0, r7, r0
	tst	r0, #255
	beq	.LBB13_24
.Ltmp676:
.LBB13_23:                              @   in Loop: Header=BB13_7 Depth=1
	@DEBUG_VALUE: gButton0Status <- %R4
	@DEBUG_VALUE: digitalWriteOnce:frame <- %R9
	ldr	r1, [r8, #40]
	ldr	r0, [r8, #8]
.Ltmp677:
	.loc	30 1287 33 is_stmt 1    @ ./include/Bela.h:1287:33
	mul	r1, r1, r6
	add	r0, r0, r1, lsl #2
	.loc	30 1287 9 is_stmt 0     @ ./include/Bela.h:1287:9
	vldr	s0, [r0, #16]
.Ltmp678:
	@DEBUG_VALUE: map:in_max <- 8.056641e-01
	@DEBUG_VALUE: map:in_min <- 0.000000e+00
	@DEBUG_VALUE: inputFSR <- %S0
	.loc	62 73 44 is_stmt 1      @ ./include/Utilities.h:73:44
	vmul.f32	d16, d0, d12
	.loc	62 73 64 is_stmt 0      @ ./include/Utilities.h:73:64
	vadd.f32	d0, d16, d13
.Ltmp679:
	@DEBUG_VALUE: dynamicLevel <- %S0
	.loc	1 451 41 is_stmt 1      @ /root/Bela/projects/final_project_v6/render.cpp:451:41
	vcvt.f64.f32	d16, s0
	.loc	1 451 54 is_stmt 0      @ /root/Bela/projects/final_project_v6/render.cpp:451:54
	vmul.f64	d16, d16, d14
	.loc	1 451 41                @ /root/Bela/projects/final_project_v6/render.cpp:451:41
	vcvt.f32.f64	s2, d16
	.loc	1 451 30 discriminator 1 @ /root/Bela/projects/final_project_v6/render.cpp:451:30
	vmov.f32	d0, #1.000000e+01
.Ltmp680:
	vmov.f32	s1, s2
	bl	powf
.Ltmp681:
	@DEBUG_VALUE: process:in <- %S0
	@DEBUG_VALUE: dynamicAmplitude <- %S0
	.loc	15 85 15 is_stmt 1      @ ./libraries/Biquad/Biquad.h:85:15
	vcvt.f64.f32	d16, s0
	.loc	15 85 20 is_stmt 0      @ ./libraries/Biquad/Biquad.h:85:20
	movw	r0, :lower16:.L_MergedGlobals.8
	movt	r0, :upper16:.L_MergedGlobals.8
	vldr	d17, [r0, #8]
	.loc	15 86 12 is_stmt 1      @ ./libraries/Biquad/Biquad.h:86:12
	vldr	d18, [r0, #16]
	.loc	15 85 18                @ ./libraries/Biquad/Biquad.h:85:18
	vmul.f64	d17, d17, d16
	.loc	15 85 25 is_stmt 0      @ ./libraries/Biquad/Biquad.h:85:25
	vldr	d20, [r0, #104]
	.loc	15 86 10 is_stmt 1      @ ./libraries/Biquad/Biquad.h:86:10
	vmul.f64	d18, d18, d16
	.loc	15 85 23                @ ./libraries/Biquad/Biquad.h:85:23
	vadd.f64	d17, d17, d20
.Ltmp682:
	@DEBUG_VALUE: process:out <- %D17
	.loc	15 86 22                @ ./libraries/Biquad/Biquad.h:86:22
	vldr	d19, [r0, #32]
	.loc	15 86 17 is_stmt 0      @ ./libraries/Biquad/Biquad.h:86:17
	vldr	d21, [r0, #112]
	.loc	15 86 25                @ ./libraries/Biquad/Biquad.h:86:25
	vmul.f64	d19, d19, d17
	.loc	15 86 15                @ ./libraries/Biquad/Biquad.h:86:15
	vadd.f64	d18, d18, d21
	.loc	15 86 20                @ ./libraries/Biquad/Biquad.h:86:20
	vsub.f64	d18, d18, d19
	.loc	15 86 5                 @ ./libraries/Biquad/Biquad.h:86:5
	vstr	d18, [r0, #104]
	.loc	15 87 17 is_stmt 1      @ ./libraries/Biquad/Biquad.h:87:17
	vldr	d19, [r0, #40]
	.loc	15 87 12 is_stmt 0      @ ./libraries/Biquad/Biquad.h:87:12
	vldr	d18, [r0, #24]
	.loc	15 87 20                @ ./libraries/Biquad/Biquad.h:87:20
	vmul.f64	d19, d19, d17
	.loc	15 87 10                @ ./libraries/Biquad/Biquad.h:87:10
	vmul.f64	d16, d18, d16
	.loc	15 87 15                @ ./libraries/Biquad/Biquad.h:87:15
	vsub.f64	d16, d16, d19
	.loc	15 88 9 is_stmt 1       @ ./libraries/Biquad/Biquad.h:88:9
	vcvt.f32.f64	s0, d17
.Ltmp683:
	.loc	15 87 5                 @ ./libraries/Biquad/Biquad.h:87:5
	vstr	d16, [r0, #112]
.Ltmp684:
	.loc	1 207 19                @ /root/Bela/projects/final_project_v6/render.cpp:207:19
	movw	r0, :lower16:.L_MergedGlobals.4
	movt	r0, :upper16:.L_MergedGlobals.4
.Ltmp685:
	.loc	1 453 23                @ /root/Bela/projects/final_project_v6/render.cpp:453:23
	vstr	s0, [r0]
.Ltmp686:
.LBB13_24:                              @   in Loop: Header=BB13_7 Depth=1
	@DEBUG_VALUE: gButton0Status <- %R4
	@DEBUG_VALUE: digitalWriteOnce:frame <- %R9
	.loc	1 457 8                 @ /root/Bela/projects/final_project_v6/render.cpp:457:8
	cmp	r7, #0
.Ltmp687:
	.loc	1 207 19                @ /root/Bela/projects/final_project_v6/render.cpp:207:19
	movw	r7, :lower16:.L_MergedGlobals.4
	movt	r7, :upper16:.L_MergedGlobals.4
	beq	.LBB13_26
.Ltmp688:
@ BB#25:                                @   in Loop: Header=BB13_7 Depth=1
	@DEBUG_VALUE: gButton0Status <- %R4
	@DEBUG_VALUE: digitalWriteOnce:frame <- %R9
	.loc	1 459 15                @ /root/Bela/projects/final_project_v6/render.cpp:459:15
	ldr	r0, [sp, #4]            @ 4-byte Reload
	.loc	1 459 28 is_stmt 0      @ /root/Bela/projects/final_project_v6/render.cpp:459:28
	vldr	s0, [r7]
	.loc	1 459 15                @ /root/Bela/projects/final_project_v6/render.cpp:459:15
	bl	_ZN8Envelope12recordSampleEf
.Ltmp689:
.LBB13_26:                              @   in Loop: Header=BB13_7 Depth=1
	@DEBUG_VALUE: gButton0Status <- %R4
	@DEBUG_VALUE: digitalWriteOnce:frame <- %R9
	.loc	1 466 10 is_stmt 1      @ /root/Bela/projects/final_project_v6/render.cpp:466:10
	ldrb	r0, [r5, #1]
	str	r4, [sp, #20]           @ 4-byte Spill
	.loc	1 466 20 is_stmt 0      @ /root/Bela/projects/final_project_v6/render.cpp:466:20
	cmp	r0, #0
	ldrbne	r0, [r5]
	cmpne	r0, #0
	beq	.LBB13_45
.Ltmp690:
@ BB#27:                                @   in Loop: Header=BB13_7 Depth=1
	@DEBUG_VALUE: gButton0Status <- %R4
	@DEBUG_VALUE: digitalWriteOnce:frame <- %R9
	.loc	1 468 11 is_stmt 1      @ /root/Bela/projects/final_project_v6/render.cpp:468:11
	ldrb	r0, [r5, #3]
.Ltmp691:
	.loc	1 468 11 is_stmt 0      @ /root/Bela/projects/final_project_v6/render.cpp:468:11
	cmp	r0, #0
	beq	.LBB13_39
.Ltmp692:
@ BB#28:                                @   in Loop: Header=BB13_7 Depth=1
	@DEBUG_VALUE: gButton0Status <- %R4
	@DEBUG_VALUE: digitalWriteOnce:frame <- %R9
	.loc	1 470 16 is_stmt 1      @ /root/Bela/projects/final_project_v6/render.cpp:470:16
	ldr	r0, [r5, #20]
.Ltmp693:
	.loc	1 207 21                @ /root/Bela/projects/final_project_v6/render.cpp:207:21
	movw	r6, :lower16:gChords
.Ltmp694:
	.loc	1 470 56                @ /root/Bela/projects/final_project_v6/render.cpp:470:56
	ldr	r1, [r5, #28]
.Ltmp695:
	@DEBUG_VALUE: operator[]:__n <- %R1
	.loc	1 207 21                @ /root/Bela/projects/final_project_v6/render.cpp:207:21
	movt	r6, :upper16:gChords
.Ltmp696:
	.loc	9 781 32                @ /usr/bin/../lib/gcc/arm-linux-gnueabihf/6.3.0/../../../../include/c++/6.3.0/bits/stl_vector.h:781:32
	ldr	r2, [r7, #28]
.Ltmp697:
	.loc	1 470 8                 @ /root/Bela/projects/final_project_v6/render.cpp:470:8
	rsb	r0, r0, r0, lsl #3
.Ltmp698:
	.loc	9 781 41                @ /usr/bin/../lib/gcc/arm-linux-gnueabihf/6.3.0/../../../../include/c++/6.3.0/bits/stl_vector.h:781:41
	add	r1, r2, r1, lsl #4
.Ltmp699:
	.loc	1 470 8                 @ /root/Bela/projects/final_project_v6/render.cpp:470:8
	add	r0, r6, r0, lsl #2
	.loc	1 470 31 is_stmt 0 discriminator 1 @ /root/Bela/projects/final_project_v6/render.cpp:470:31
	bl	_ZN5Chord10setQualityERSt5arrayIiLj4EE
.Ltmp700:
	@DEBUG_VALUE: i <- 0
	.loc	1 207 29 is_stmt 1      @ /root/Bela/projects/final_project_v6/render.cpp:207:29
	ldr	r0, [r5, #20]
	.loc	1 207 21 is_stmt 0      @ /root/Bela/projects/final_project_v6/render.cpp:207:21
	rsb	r0, r0, r0, lsl #3
	add	r0, r6, r0, lsl #2
	.loc	1 207 44                @ /root/Bela/projects/final_project_v6/render.cpp:207:44
	bl	_ZN5Chord10buildChordEv
	mov	r4, r10
.Ltmp701:
	.loc	1 208 14 is_stmt 1      @ /root/Bela/projects/final_project_v6/render.cpp:208:14
	movw	r10, :lower16:gVoices
	movt	r10, :upper16:gVoices
.Ltmp702:
	.loc	1 207 19                @ /root/Bela/projects/final_project_v6/render.cpp:207:19
	vstr	s0, [r7, #100]
	.loc	1 208 14                @ /root/Bela/projects/final_project_v6/render.cpp:208:14
	mov	r0, r10
	bl	_ZN5Voice12setFrequencyEf
.Ltmp703:
	@DEBUG_VALUE: i <- 1
	.loc	1 207 29                @ /root/Bela/projects/final_project_v6/render.cpp:207:29
	ldr	r0, [r5, #20]
	.loc	1 207 21 is_stmt 0      @ /root/Bela/projects/final_project_v6/render.cpp:207:21
	rsb	r0, r0, r0, lsl #3
	add	r0, r6, r0, lsl #2
	.loc	1 207 44                @ /root/Bela/projects/final_project_v6/render.cpp:207:44
	bl	_ZN5Chord10buildChordEv
	.loc	1 208 14 is_stmt 1      @ /root/Bela/projects/final_project_v6/render.cpp:208:14
	vmov.f32	s0, s1
	add	r0, r10, #76
	.loc	1 207 19                @ /root/Bela/projects/final_project_v6/render.cpp:207:19
	vstr	s1, [r7, #104]
	.loc	1 208 14                @ /root/Bela/projects/final_project_v6/render.cpp:208:14
	bl	_ZN5Voice12setFrequencyEf
	.loc	1 207 29                @ /root/Bela/projects/final_project_v6/render.cpp:207:29
	ldr	r0, [r5, #20]
	.loc	1 207 21 is_stmt 0      @ /root/Bela/projects/final_project_v6/render.cpp:207:21
	rsb	r0, r0, r0, lsl #3
	add	r0, r6, r0, lsl #2
	.loc	1 207 44                @ /root/Bela/projects/final_project_v6/render.cpp:207:44
	bl	_ZN5Chord10buildChordEv
	.loc	1 208 14 is_stmt 1      @ /root/Bela/projects/final_project_v6/render.cpp:208:14
	vmov.f32	s0, s2
	add	r0, r10, #152
	.loc	1 207 19                @ /root/Bela/projects/final_project_v6/render.cpp:207:19
	vstr	s2, [r7, #108]
	.loc	1 208 14                @ /root/Bela/projects/final_project_v6/render.cpp:208:14
	bl	_ZN5Voice12setFrequencyEf
	.loc	1 207 29                @ /root/Bela/projects/final_project_v6/render.cpp:207:29
	ldr	r0, [r5, #20]
	.loc	1 207 21 is_stmt 0      @ /root/Bela/projects/final_project_v6/render.cpp:207:21
	rsb	r0, r0, r0, lsl #3
	add	r0, r6, r0, lsl #2
	.loc	1 207 44                @ /root/Bela/projects/final_project_v6/render.cpp:207:44
	bl	_ZN5Chord10buildChordEv
	.loc	1 208 14 is_stmt 1      @ /root/Bela/projects/final_project_v6/render.cpp:208:14
	vmov.f32	s0, s3
	add	r0, r10, #228
	mov	r10, r4
	.loc	1 207 19                @ /root/Bela/projects/final_project_v6/render.cpp:207:19
	vstr	s3, [r7, #112]
	ldr	r4, [sp, #20]           @ 4-byte Reload
	.loc	1 208 14                @ /root/Bela/projects/final_project_v6/render.cpp:208:14
	bl	_ZN5Voice12setFrequencyEf
.Ltmp704:
	.loc	1 472 34                @ /root/Bela/projects/final_project_v6/render.cpp:472:34
	cmp	r4, #0
	bne	.LBB13_45
.Ltmp705:
@ BB#29:                                @   in Loop: Header=BB13_7 Depth=1
	@DEBUG_VALUE: digitalWriteOnce:frame <- %R9
	ldrb	r0, [r5, #7]
	cmp	r0, #0
	beq	.LBB13_45
.Ltmp706:
@ BB#30:                                @   in Loop: Header=BB13_7 Depth=1
	@DEBUG_VALUE: digitalWriteOnce:frame <- %R9
	.loc	1 474 22                @ /root/Bela/projects/final_project_v6/render.cpp:474:22
	ldr	r0, [r5, #20]
	add	r0, r0, #1
	str	r0, [r5, #20]
	.loc	1 477 13                @ /root/Bela/projects/final_project_v6/render.cpp:477:13
	cmp	r0, #8
	blo	.LBB13_45
.Ltmp707:
@ BB#31:                                @   in Loop: Header=BB13_7 Depth=1
	@DEBUG_VALUE: digitalWriteOnce:frame <- %R9
	mov	r0, #0
.Ltmp708:
	.loc	1 479 24                @ /root/Bela/projects/final_project_v6/render.cpp:479:24
	str	r0, [r5, #20]
	.loc	1 480 30                @ /root/Bela/projects/final_project_v6/render.cpp:480:30
	mov	r0, #256
	strh	r0, [r5, #3]
	.loc	1 482 10                @ /root/Bela/projects/final_project_v6/render.cpp:482:10
	movw	r0, :lower16:.L.str.26
	movt	r0, :upper16:.L.str.26
	b	.LBB13_44
.Ltmp709:
	.p2align	2
@ BB#32:
.LCPI13_18:
	.long	1096446990              @ float 13.6533337
	.p2align	2
@ BB#33:
.LCPI13_19:
	.long	1067376650              @ float 1.24121213
	.p2align	2
@ BB#34:
.LCPI13_20:
	.long	1080971279              @ float 3.72363639
	.p2align	2
@ BB#35:
.LCPI13_21:
	.long	1082852361              @ float 4.34424257
	.p2align	2
@ BB#36:
.LCPI13_22:
	.long	1130164110              @ float 220.93576
	.p2align	2
@ BB#37:
.LCPI13_23:
	.long	1114636288              @ float 60
	.p2align	2
@ BB#38:
.LCPI13_24:
	.long	3263823872              @ float -69
.LBB13_39:                              @   in Loop: Header=BB13_7 Depth=1
.Ltmp710:
	@DEBUG_VALUE: gButton0Status <- %R4
	@DEBUG_VALUE: digitalWriteOnce:frame <- %R9
	.loc	1 488 16                @ /root/Bela/projects/final_project_v6/render.cpp:488:16
	ldrb	r0, [r5, #4]
.Ltmp711:
	.loc	1 488 16 is_stmt 0      @ /root/Bela/projects/final_project_v6/render.cpp:488:16
	cmp	r0, #0
	beq	.LBB13_45
.Ltmp712:
@ BB#40:                                @   in Loop: Header=BB13_7 Depth=1
	@DEBUG_VALUE: gButton0Status <- %R4
	@DEBUG_VALUE: digitalWriteOnce:frame <- %R9
	.loc	1 490 16 is_stmt 1      @ /root/Bela/projects/final_project_v6/render.cpp:490:16
	ldr	r0, [r5, #20]
.Ltmp713:
	.loc	1 207 21                @ /root/Bela/projects/final_project_v6/render.cpp:207:21
	movw	r6, :lower16:gChords
.Ltmp714:
	.loc	1 490 44                @ /root/Bela/projects/final_project_v6/render.cpp:490:44
	ldr	r1, [r5, #32]
.Ltmp715:
	.loc	1 207 21                @ /root/Bela/projects/final_project_v6/render.cpp:207:21
	movt	r6, :upper16:gChords
.Ltmp716:
	.loc	1 490 8                 @ /root/Bela/projects/final_project_v6/render.cpp:490:8
	rsb	r0, r0, r0, lsl #3
	add	r0, r6, r0, lsl #2
	.loc	1 490 31 is_stmt 0      @ /root/Bela/projects/final_project_v6/render.cpp:490:31
	bl	_ZN5Chord12setInversionEj
.Ltmp717:
	@DEBUG_VALUE: i <- 0
	.loc	1 207 29 is_stmt 1      @ /root/Bela/projects/final_project_v6/render.cpp:207:29
	ldr	r0, [r5, #20]
	.loc	1 207 21 is_stmt 0      @ /root/Bela/projects/final_project_v6/render.cpp:207:21
	rsb	r0, r0, r0, lsl #3
	add	r0, r6, r0, lsl #2
	.loc	1 207 44                @ /root/Bela/projects/final_project_v6/render.cpp:207:44
	bl	_ZN5Chord10buildChordEv
	mov	r4, r10
.Ltmp718:
	.loc	1 208 14 is_stmt 1      @ /root/Bela/projects/final_project_v6/render.cpp:208:14
	movw	r10, :lower16:gVoices
	movt	r10, :upper16:gVoices
.Ltmp719:
	.loc	1 207 19                @ /root/Bela/projects/final_project_v6/render.cpp:207:19
	vstr	s0, [r7, #100]
	.loc	1 208 14                @ /root/Bela/projects/final_project_v6/render.cpp:208:14
	mov	r0, r10
	bl	_ZN5Voice12setFrequencyEf
.Ltmp720:
	@DEBUG_VALUE: i <- 1
	.loc	1 207 29                @ /root/Bela/projects/final_project_v6/render.cpp:207:29
	ldr	r0, [r5, #20]
	.loc	1 207 21 is_stmt 0      @ /root/Bela/projects/final_project_v6/render.cpp:207:21
	rsb	r0, r0, r0, lsl #3
	add	r0, r6, r0, lsl #2
	.loc	1 207 44                @ /root/Bela/projects/final_project_v6/render.cpp:207:44
	bl	_ZN5Chord10buildChordEv
	.loc	1 208 14 is_stmt 1      @ /root/Bela/projects/final_project_v6/render.cpp:208:14
	vmov.f32	s0, s1
	add	r0, r10, #76
	.loc	1 207 19                @ /root/Bela/projects/final_project_v6/render.cpp:207:19
	vstr	s1, [r7, #104]
	.loc	1 208 14                @ /root/Bela/projects/final_project_v6/render.cpp:208:14
	bl	_ZN5Voice12setFrequencyEf
	.loc	1 207 29                @ /root/Bela/projects/final_project_v6/render.cpp:207:29
	ldr	r0, [r5, #20]
	.loc	1 207 21 is_stmt 0      @ /root/Bela/projects/final_project_v6/render.cpp:207:21
	rsb	r0, r0, r0, lsl #3
	add	r0, r6, r0, lsl #2
	.loc	1 207 44                @ /root/Bela/projects/final_project_v6/render.cpp:207:44
	bl	_ZN5Chord10buildChordEv
	.loc	1 208 14 is_stmt 1      @ /root/Bela/projects/final_project_v6/render.cpp:208:14
	vmov.f32	s0, s2
	add	r0, r10, #152
	.loc	1 207 19                @ /root/Bela/projects/final_project_v6/render.cpp:207:19
	vstr	s2, [r7, #108]
	.loc	1 208 14                @ /root/Bela/projects/final_project_v6/render.cpp:208:14
	bl	_ZN5Voice12setFrequencyEf
	.loc	1 207 29                @ /root/Bela/projects/final_project_v6/render.cpp:207:29
	ldr	r0, [r5, #20]
	.loc	1 207 21 is_stmt 0      @ /root/Bela/projects/final_project_v6/render.cpp:207:21
	rsb	r0, r0, r0, lsl #3
	add	r0, r6, r0, lsl #2
	.loc	1 207 44                @ /root/Bela/projects/final_project_v6/render.cpp:207:44
	bl	_ZN5Chord10buildChordEv
	.loc	1 208 14 is_stmt 1      @ /root/Bela/projects/final_project_v6/render.cpp:208:14
	vmov.f32	s0, s3
	add	r0, r10, #228
	mov	r10, r4
	.loc	1 207 19                @ /root/Bela/projects/final_project_v6/render.cpp:207:19
	vstr	s3, [r7, #112]
	ldr	r4, [sp, #20]           @ 4-byte Reload
	.loc	1 208 14                @ /root/Bela/projects/final_project_v6/render.cpp:208:14
	bl	_ZN5Voice12setFrequencyEf
.Ltmp721:
	.loc	1 492 34                @ /root/Bela/projects/final_project_v6/render.cpp:492:34
	cmp	r4, #0
	bne	.LBB13_45
.Ltmp722:
@ BB#41:                                @   in Loop: Header=BB13_7 Depth=1
	@DEBUG_VALUE: digitalWriteOnce:frame <- %R9
	ldrb	r0, [r5, #7]
	cmp	r0, #0
	beq	.LBB13_45
.Ltmp723:
@ BB#42:                                @   in Loop: Header=BB13_7 Depth=1
	@DEBUG_VALUE: digitalWriteOnce:frame <- %R9
	.loc	1 494 22                @ /root/Bela/projects/final_project_v6/render.cpp:494:22
	ldr	r0, [r5, #20]
	add	r0, r0, #1
	str	r0, [r5, #20]
	.loc	1 497 13                @ /root/Bela/projects/final_project_v6/render.cpp:497:13
	cmp	r0, #8
	blo	.LBB13_45
.Ltmp724:
@ BB#43:                                @   in Loop: Header=BB13_7 Depth=1
	@DEBUG_VALUE: digitalWriteOnce:frame <- %R9
	mov	r0, #0
.Ltmp725:
	.loc	1 499 24                @ /root/Bela/projects/final_project_v6/render.cpp:499:24
	str	r0, [r5, #20]
	.loc	1 500 31                @ /root/Bela/projects/final_project_v6/render.cpp:500:31
	strb	r0, [r5, #4]
	.loc	1 501 19                @ /root/Bela/projects/final_project_v6/render.cpp:501:19
	strb	r0, [r5]
	.loc	1 502 27                @ /root/Bela/projects/final_project_v6/render.cpp:502:27
	str	r0, [r5, #92]
.Ltmp726:
	.loc	1 588 25                @ /root/Bela/projects/final_project_v6/render.cpp:588:25
	mov	r0, #1
.Ltmp727:
	.loc	1 503 29                @ /root/Bela/projects/final_project_v6/render.cpp:503:29
	strb	r0, [r5, #5]
	.loc	1 504 10                @ /root/Bela/projects/final_project_v6/render.cpp:504:10
	movw	r0, :lower16:.L.str.27
	movt	r0, :upper16:.L.str.27
	bl	rt_printf
	.loc	1 505 10                @ /root/Bela/projects/final_project_v6/render.cpp:505:10
	movw	r0, :lower16:.L.str.28
	movt	r0, :upper16:.L.str.28
	bl	rt_printf
	.loc	1 506 10                @ /root/Bela/projects/final_project_v6/render.cpp:506:10
	movw	r0, :lower16:.L.str.29
	movt	r0, :upper16:.L.str.29
	bl	rt_printf
	.loc	1 507 10                @ /root/Bela/projects/final_project_v6/render.cpp:507:10
	movw	r0, :lower16:.L.str.30
	movt	r0, :upper16:.L.str.30
	bl	rt_printf
	.loc	1 508 10                @ /root/Bela/projects/final_project_v6/render.cpp:508:10
	movw	r0, :lower16:.L.str.31
	movt	r0, :upper16:.L.str.31
	bl	rt_printf
	.loc	1 509 10                @ /root/Bela/projects/final_project_v6/render.cpp:509:10
	movw	r0, :lower16:.L.str.32
	movt	r0, :upper16:.L.str.32
.Ltmp728:
.LBB13_44:                              @   in Loop: Header=BB13_7 Depth=1
	@DEBUG_VALUE: digitalWriteOnce:frame <- %R9
	bl	rt_printf
.Ltmp729:
.LBB13_45:                              @   in Loop: Header=BB13_7 Depth=1
	@DEBUG_VALUE: digitalWriteOnce:frame <- %R9
	vmov.i32	d8, #0x0
.Ltmp730:
	.loc	1 518 11                @ /root/Bela/projects/final_project_v6/render.cpp:518:11
	ldrb	r0, [r5, #1]
	.loc	1 518 21 is_stmt 0      @ /root/Bela/projects/final_project_v6/render.cpp:518:21
	cmp	r0, #0
	bne	.LBB13_48
.Ltmp731:
@ BB#46:                                @   in Loop: Header=BB13_7 Depth=1
	@DEBUG_VALUE: digitalWriteOnce:frame <- %R9
	ldrb	r0, [r5]
	cmp	r0, #0
	beq	.LBB13_48
.Ltmp732:
@ BB#47:                                @   in Loop: Header=BB13_7 Depth=1
	@DEBUG_VALUE: digitalWriteOnce:frame <- %R9
	.loc	1 520 29 is_stmt 1      @ /root/Bela/projects/final_project_v6/render.cpp:520:29
	ldr	r1, [r5, #36]
	.loc	1 520 40 is_stmt 0      @ /root/Bela/projects/final_project_v6/render.cpp:520:40
	ldr	r0, [r5, #24]
	.loc	1 521 58 is_stmt 1      @ /root/Bela/projects/final_project_v6/render.cpp:521:58
	vldr	d17, .LCPI13_26
	.loc	1 520 27                @ /root/Bela/projects/final_project_v6/render.cpp:520:27
	add	r1, r1, r1, lsl #1
	.loc	1 520 38 is_stmt 0      @ /root/Bela/projects/final_project_v6/render.cpp:520:38
	add	r0, r0, r1, lsl #2
.Ltmp733:
	@DEBUG_VALUE: midiNum <- %R0
	.loc	1 521 50 is_stmt 1      @ /root/Bela/projects/final_project_v6/render.cpp:521:50
	vmov	s0, r0
.Ltmp734:
	@DEBUG_VALUE: midiNum <- %S0
	vcvt.f64.s32	d16, s0
	.loc	1 521 58 is_stmt 0      @ /root/Bela/projects/final_project_v6/render.cpp:521:58
	vadd.f64	d16, d16, d17
	.loc	1 521 66                @ /root/Bela/projects/final_project_v6/render.cpp:521:66
	vldr	d17, .LCPI13_27
	vmul.f64	d16, d16, d17
	.loc	1 521 49                @ /root/Bela/projects/final_project_v6/render.cpp:521:49
	vcvt.f32.f64	s0, d16
.Ltmp735:
	.loc	1 521 39                @ /root/Bela/projects/final_project_v6/render.cpp:521:39
	bl	exp2f
                                        @ kill: %S0<def> %S0<kill> %D0<def>
.Ltmp736:
	.loc	1 208 14 is_stmt 1      @ /root/Bela/projects/final_project_v6/render.cpp:208:14
	movw	r4, :lower16:gVoices
.Ltmp737:
	.loc	1 521 31                @ /root/Bela/projects/final_project_v6/render.cpp:521:31
	vmul.f32	d0, d0, d11
.Ltmp738:
	.loc	1 208 14                @ /root/Bela/projects/final_project_v6/render.cpp:208:14
	movt	r4, :upper16:gVoices
.Ltmp739:
	.loc	1 521 18 discriminator 1 @ /root/Bela/projects/final_project_v6/render.cpp:521:18
	mov	r0, r4
                                        @ kill: %S0<def> %S0<kill> %D0<kill>
	bl	_ZN5Voice12setFrequencyEf
	.loc	1 522 38                @ /root/Bela/projects/final_project_v6/render.cpp:522:38
	mov	r0, r4
	.loc	1 522 14 is_stmt 0      @ /root/Bela/projects/final_project_v6/render.cpp:522:14
	vldr	s16, [r5, #124]
	ldr	r4, [sp, #20]           @ 4-byte Reload
	.loc	1 522 38                @ /root/Bela/projects/final_project_v6/render.cpp:522:38
	bl	_ZN5Voice7processEv
                                        @ kill: %S0<def> %S0<kill> %D0<def>
	.loc	1 522 25                @ /root/Bela/projects/final_project_v6/render.cpp:522:25
	vmul.f32	d8, d0, d8
.Ltmp740:
	@DEBUG_VALUE: out <- %S16
.LBB13_48:                              @   in Loop: Header=BB13_7 Depth=1
	@DEBUG_VALUE: digitalWriteOnce:frame <- %R9
	.loc	1 525 10 is_stmt 1      @ /root/Bela/projects/final_project_v6/render.cpp:525:10
	ldrb	r0, [r5, #2]
.Ltmp741:
	.loc	1 525 10 is_stmt 0      @ /root/Bela/projects/final_project_v6/render.cpp:525:10
	cmp	r0, #0
	beq	.LBB13_58
.Ltmp742:
@ BB#49:                                @   in Loop: Header=BB13_7 Depth=1
	@DEBUG_VALUE: digitalWriteOnce:frame <- %R9
	.loc	1 527 18 is_stmt 1      @ /root/Bela/projects/final_project_v6/render.cpp:527:18
	ldrb	r0, [r5, #8]
.Ltmp743:
	.loc	1 527 17 is_stmt 0      @ /root/Bela/projects/final_project_v6/render.cpp:527:17
	cmp	r0, #0
	beq	.LBB13_57
.Ltmp744:
@ BB#50:                                @   in Loop: Header=BB13_7 Depth=1
	@DEBUG_VALUE: digitalWriteOnce:frame <- %R9
	.loc	1 537 37 is_stmt 1 discriminator 1 @ /root/Bela/projects/final_project_v6/render.cpp:537:37
	ldrb	r0, [r5, #7]
	.loc	1 537 34 is_stmt 0      @ /root/Bela/projects/final_project_v6/render.cpp:537:34
	cmp	r4, #0
	bne	.LBB13_55
.Ltmp745:
@ BB#51:                                @   in Loop: Header=BB13_7 Depth=1
	@DEBUG_VALUE: digitalWriteOnce:frame <- %R9
	cmp	r0, #0
	beq	.LBB13_55
.Ltmp746:
@ BB#52:                                @   in Loop: Header=BB13_7 Depth=1
	@DEBUG_VALUE: digitalWriteOnce:frame <- %R9
	.loc	1 735 20 is_stmt 1      @ /root/Bela/projects/final_project_v6/render.cpp:735:20
	movw	r4, :lower16:.L_MergedGlobals.6
.Ltmp747:
	.loc	1 540 16                @ /root/Bela/projects/final_project_v6/render.cpp:540:16
	ldr	r0, [r5, #20]
.Ltmp748:
	.loc	1 735 20                @ /root/Bela/projects/final_project_v6/render.cpp:735:20
	movt	r4, :upper16:.L_MergedGlobals.6
.Ltmp749:
	.loc	1 540 9                 @ /root/Bela/projects/final_project_v6/render.cpp:540:9
	add	r2, r4, #48
	.loc	1 540 33 is_stmt 0      @ /root/Bela/projects/final_project_v6/render.cpp:540:33
	ldr	r1, [r5, #24]
	.loc	1 540 31                @ /root/Bela/projects/final_project_v6/render.cpp:540:31
	str	r1, [r2, r0, lsl #2]
	.loc	1 541 22 is_stmt 1      @ /root/Bela/projects/final_project_v6/render.cpp:541:22
	add	r0, r0, #1
	str	r0, [r5, #20]
	.loc	1 544 9                 @ /root/Bela/projects/final_project_v6/render.cpp:544:9
	movw	r0, :lower16:.L.str.33
	movt	r0, :upper16:.L.str.33
	bl	rt_printf
.Ltmp750:
	@DEBUG_VALUE: i <- 0
	.loc	1 546 10                @ /root/Bela/projects/final_project_v6/render.cpp:546:10
	movw	r6, :lower16:.L.str.34
	.loc	1 546 28 is_stmt 0      @ /root/Bela/projects/final_project_v6/render.cpp:546:28
	ldr	r1, [r4, #48]
	.loc	1 546 10                @ /root/Bela/projects/final_project_v6/render.cpp:546:10
	movt	r6, :upper16:.L.str.34
	mov	r0, r6
	bl	rt_printf
.Ltmp751:
	@DEBUG_VALUE: i <- 1
	.loc	1 546 28                @ /root/Bela/projects/final_project_v6/render.cpp:546:28
	ldr	r1, [r4, #52]
	.loc	1 546 10                @ /root/Bela/projects/final_project_v6/render.cpp:546:10
	mov	r0, r6
	bl	rt_printf
	.loc	1 546 28                @ /root/Bela/projects/final_project_v6/render.cpp:546:28
	ldr	r1, [r4, #56]
	.loc	1 546 10                @ /root/Bela/projects/final_project_v6/render.cpp:546:10
	mov	r0, r6
	bl	rt_printf
	.loc	1 546 28                @ /root/Bela/projects/final_project_v6/render.cpp:546:28
	ldr	r1, [r4, #60]
	.loc	1 546 10                @ /root/Bela/projects/final_project_v6/render.cpp:546:10
	mov	r0, r6
	bl	rt_printf
	.loc	1 546 28                @ /root/Bela/projects/final_project_v6/render.cpp:546:28
	ldr	r1, [r4, #64]
	.loc	1 546 10                @ /root/Bela/projects/final_project_v6/render.cpp:546:10
	mov	r0, r6
	bl	rt_printf
	.loc	1 546 28                @ /root/Bela/projects/final_project_v6/render.cpp:546:28
	ldr	r1, [r4, #68]
	.loc	1 546 10                @ /root/Bela/projects/final_project_v6/render.cpp:546:10
	mov	r0, r6
	bl	rt_printf
	.loc	1 546 28                @ /root/Bela/projects/final_project_v6/render.cpp:546:28
	ldr	r1, [r4, #72]
	.loc	1 546 10                @ /root/Bela/projects/final_project_v6/render.cpp:546:10
	mov	r0, r6
	bl	rt_printf
	.loc	1 546 28                @ /root/Bela/projects/final_project_v6/render.cpp:546:28
	ldr	r1, [r4, #76]
	.loc	1 546 10                @ /root/Bela/projects/final_project_v6/render.cpp:546:10
	mov	r0, r6
	bl	rt_printf
.Ltmp752:
	.loc	1 548 9 is_stmt 1       @ /root/Bela/projects/final_project_v6/render.cpp:548:9
	movw	r0, :lower16:.L.str.35
	movt	r0, :upper16:.L.str.35
	bl	rt_printf
.Ltmp753:
	.loc	1 551 13                @ /root/Bela/projects/final_project_v6/render.cpp:551:13
	ldr	r0, [r5, #20]
.Ltmp754:
	.loc	1 551 13 is_stmt 0      @ /root/Bela/projects/final_project_v6/render.cpp:551:13
	cmp	r0, #8
	blo	.LBB13_54
.Ltmp755:
@ BB#53:                                @   in Loop: Header=BB13_7 Depth=1
	@DEBUG_VALUE: digitalWriteOnce:frame <- %R9
	.loc	1 735 20 is_stmt 1      @ /root/Bela/projects/final_project_v6/render.cpp:735:20
	movw	r4, :lower16:.L_MergedGlobals.6
.Ltmp756:
	.loc	1 207 21                @ /root/Bela/projects/final_project_v6/render.cpp:207:21
	movw	r6, :lower16:gChords
.Ltmp757:
	.loc	1 735 20                @ /root/Bela/projects/final_project_v6/render.cpp:735:20
	movt	r4, :upper16:.L_MergedGlobals.6
	mov	r0, #0
.Ltmp758:
	.loc	1 561 35                @ /root/Bela/projects/final_project_v6/render.cpp:561:35
	ldr	r1, [r4, #48]
.Ltmp759:
	.loc	1 207 21                @ /root/Bela/projects/final_project_v6/render.cpp:207:21
	movt	r6, :upper16:gChords
.Ltmp760:
	.loc	1 553 24                @ /root/Bela/projects/final_project_v6/render.cpp:553:24
	str	r0, [r5, #20]
.Ltmp761:
	.loc	1 588 25                @ /root/Bela/projects/final_project_v6/render.cpp:588:25
	mov	r0, #1
.Ltmp762:
	.loc	1 555 30                @ /root/Bela/projects/final_project_v6/render.cpp:555:30
	strb	r0, [r5, #3]
	.loc	1 556 20                @ /root/Bela/projects/final_project_v6/render.cpp:556:20
	strh	r0, [r5, #1]
.Ltmp763:
	@DEBUG_VALUE: i <- 0
	.loc	1 561 22                @ /root/Bela/projects/final_project_v6/render.cpp:561:22
	mov	r0, r6
	bl	_ZN5Chord12setRootIndexEj
.Ltmp764:
	@DEBUG_VALUE: i <- 1
	.loc	1 561 35 is_stmt 0      @ /root/Bela/projects/final_project_v6/render.cpp:561:35
	ldr	r1, [r4, #52]
	.loc	1 561 22                @ /root/Bela/projects/final_project_v6/render.cpp:561:22
	add	r0, r6, #28
	bl	_ZN5Chord12setRootIndexEj
	.loc	1 561 35                @ /root/Bela/projects/final_project_v6/render.cpp:561:35
	ldr	r1, [r4, #56]
	.loc	1 561 22                @ /root/Bela/projects/final_project_v6/render.cpp:561:22
	add	r0, r6, #56
	bl	_ZN5Chord12setRootIndexEj
	.loc	1 561 35                @ /root/Bela/projects/final_project_v6/render.cpp:561:35
	ldr	r1, [r4, #60]
	.loc	1 561 22                @ /root/Bela/projects/final_project_v6/render.cpp:561:22
	add	r0, r6, #84
	bl	_ZN5Chord12setRootIndexEj
	.loc	1 561 35                @ /root/Bela/projects/final_project_v6/render.cpp:561:35
	ldr	r1, [r4, #64]
	.loc	1 561 22                @ /root/Bela/projects/final_project_v6/render.cpp:561:22
	add	r0, r6, #112
	bl	_ZN5Chord12setRootIndexEj
	.loc	1 561 35                @ /root/Bela/projects/final_project_v6/render.cpp:561:35
	ldr	r1, [r4, #68]
	.loc	1 561 22                @ /root/Bela/projects/final_project_v6/render.cpp:561:22
	add	r0, r6, #140
	bl	_ZN5Chord12setRootIndexEj
	.loc	1 561 35                @ /root/Bela/projects/final_project_v6/render.cpp:561:35
	ldr	r1, [r4, #72]
	.loc	1 561 22                @ /root/Bela/projects/final_project_v6/render.cpp:561:22
	add	r0, r6, #168
	bl	_ZN5Chord12setRootIndexEj
	.loc	1 561 35                @ /root/Bela/projects/final_project_v6/render.cpp:561:35
	ldr	r1, [r4, #76]
	.loc	1 561 22                @ /root/Bela/projects/final_project_v6/render.cpp:561:22
	add	r0, r6, #196
	bl	_ZN5Chord12setRootIndexEj
.Ltmp765:
	.loc	1 563 10 is_stmt 1      @ /root/Bela/projects/final_project_v6/render.cpp:563:10
	movw	r0, :lower16:.L.str.36
	movt	r0, :upper16:.L.str.36
	bl	rt_printf
.Ltmp766:
.LBB13_54:                              @   in Loop: Header=BB13_7 Depth=1
	@DEBUG_VALUE: digitalWriteOnce:frame <- %R9
	mov	r0, #0
	ldr	r4, [sp, #20]           @ 4-byte Reload
	.loc	1 565 28                @ /root/Bela/projects/final_project_v6/render.cpp:565:28
	strb	r0, [r5, #8]
	.loc	1 566 33                @ /root/Bela/projects/final_project_v6/render.cpp:566:33
	str	r0, [r5, #76]
.Ltmp767:
	.loc	1 568 38 discriminator 1 @ /root/Bela/projects/final_project_v6/render.cpp:568:38
	ldrb	r0, [r5, #7]
.Ltmp768:
.LBB13_55:                              @   in Loop: Header=BB13_7 Depth=1
	@DEBUG_VALUE: digitalWriteOnce:frame <- %R9
	.loc	1 568 35 is_stmt 0      @ /root/Bela/projects/final_project_v6/render.cpp:568:35
	cmp	r4, #0
	beq	.LBB13_58
.Ltmp769:
@ BB#56:                                @   in Loop: Header=BB13_7 Depth=1
	@DEBUG_VALUE: digitalWriteOnce:frame <- %R9
	cmp	r0, #0
	moveq	r0, #0
.Ltmp770:
	.loc	1 570 28 is_stmt 1      @ /root/Bela/projects/final_project_v6/render.cpp:570:28
	strbeq	r0, [r5, #8]
	.loc	1 571 33                @ /root/Bela/projects/final_project_v6/render.cpp:571:33
	streq	r0, [r5, #76]
	b	.LBB13_58
.Ltmp771:
.LBB13_57:                              @   in Loop: Header=BB13_7 Depth=1
	@DEBUG_VALUE: digitalWriteOnce:frame <- %R9
	.loc	1 529 37                @ /root/Bela/projects/final_project_v6/render.cpp:529:37
	ldr	r0, [r5, #76]
	add	r0, r0, #1
	str	r0, [r5, #76]
.Ltmp772:
	.loc	1 530 36                @ /root/Bela/projects/final_project_v6/render.cpp:530:36
	ldr	r1, [r5, #72]
.Ltmp773:
	.loc	1 530 9 is_stmt 0       @ /root/Bela/projects/final_project_v6/render.cpp:530:9
	cmp	r0, r1
.Ltmp774:
	.loc	1 588 25 is_stmt 1      @ /root/Bela/projects/final_project_v6/render.cpp:588:25
	movhs	r0, #1
.Ltmp775:
	.loc	1 532 25                @ /root/Bela/projects/final_project_v6/render.cpp:532:25
	strbhs	r0, [r5, #8]
.Ltmp776:
.LBB13_58:                              @   in Loop: Header=BB13_7 Depth=1
	@DEBUG_VALUE: digitalWriteOnce:frame <- %R9
	.loc	1 578 11                @ /root/Bela/projects/final_project_v6/render.cpp:578:11
	ldrb	r0, [r5]
.Ltmp777:
	.loc	1 578 10 is_stmt 0      @ /root/Bela/projects/final_project_v6/render.cpp:578:10
	cmp	r0, #0
	bne	.LBB13_114
.Ltmp778:
@ BB#59:                                @   in Loop: Header=BB13_7 Depth=1
	@DEBUG_VALUE: digitalWriteOnce:frame <- %R9
	.loc	1 580 21 is_stmt 1      @ /root/Bela/projects/final_project_v6/render.cpp:580:21
	ldr	r0, [r5, #48]
	add	r0, r0, #1
	str	r0, [r5, #48]
.Ltmp779:
	.loc	1 583 12                @ /root/Bela/projects/final_project_v6/render.cpp:583:12
	ldrb	r0, [r5, #10]
.Ltmp780:
	.loc	1 583 11 is_stmt 0      @ /root/Bela/projects/final_project_v6/render.cpp:583:11
	cmp	r0, #0
	beq	.LBB13_64
.Ltmp781:
@ BB#60:                                @   in Loop: Header=BB13_7 Depth=1
	@DEBUG_VALUE: digitalWriteOnce:frame <- %R9
	.loc	1 599 38 is_stmt 1 discriminator 1 @ /root/Bela/projects/final_project_v6/render.cpp:599:38
	ldrb	r0, [r5, #9]
.Ltmp782:
	.loc	1 593 34                @ /root/Bela/projects/final_project_v6/render.cpp:593:34
	ldr	r1, [sp, #16]           @ 4-byte Reload
	cmp	r1, #0
	bne	.LBB13_62
.Ltmp783:
@ BB#61:                                @   in Loop: Header=BB13_7 Depth=1
	@DEBUG_VALUE: digitalWriteOnce:frame <- %R9
	cmp	r0, #0
.Ltmp784:
	.loc	1 595 32                @ /root/Bela/projects/final_project_v6/render.cpp:595:32
	ldrbne	r1, [r5, #6]
	.loc	1 595 29 is_stmt 0      @ /root/Bela/projects/final_project_v6/render.cpp:595:29
	eorne	r1, r1, #1
	strbne	r1, [r5, #6]
	movne	r1, #0
	.loc	1 596 28 is_stmt 1      @ /root/Bela/projects/final_project_v6/render.cpp:596:28
	strbne	r1, [r5, #10]
	.loc	1 597 33                @ /root/Bela/projects/final_project_v6/render.cpp:597:33
	strne	r1, [r5, #80]
.Ltmp785:
.LBB13_62:                              @   in Loop: Header=BB13_7 Depth=1
	@DEBUG_VALUE: digitalWriteOnce:frame <- %R9
	.loc	1 599 35                @ /root/Bela/projects/final_project_v6/render.cpp:599:35
	ldr	r1, [sp, #16]           @ 4-byte Reload
	cmp	r1, #0
	beq	.LBB13_65
.Ltmp786:
@ BB#63:                                @   in Loop: Header=BB13_7 Depth=1
	@DEBUG_VALUE: digitalWriteOnce:frame <- %R9
	cmp	r0, #0
	moveq	r0, #0
.Ltmp787:
	.loc	1 601 28                @ /root/Bela/projects/final_project_v6/render.cpp:601:28
	strbeq	r0, [r5, #10]
	.loc	1 602 33                @ /root/Bela/projects/final_project_v6/render.cpp:602:33
	streq	r0, [r5, #80]
	b	.LBB13_65
.Ltmp788:
.LBB13_64:                              @   in Loop: Header=BB13_7 Depth=1
	@DEBUG_VALUE: digitalWriteOnce:frame <- %R9
	.loc	1 585 31                @ /root/Bela/projects/final_project_v6/render.cpp:585:31
	ldr	r0, [r5, #80]
	add	r0, r0, #1
	str	r0, [r5, #80]
.Ltmp789:
	.loc	1 586 36                @ /root/Bela/projects/final_project_v6/render.cpp:586:36
	ldr	r1, [r5, #72]
.Ltmp790:
	.loc	1 586 9 is_stmt 0       @ /root/Bela/projects/final_project_v6/render.cpp:586:9
	cmp	r0, r1
.Ltmp791:
	.loc	1 588 25 is_stmt 1      @ /root/Bela/projects/final_project_v6/render.cpp:588:25
	movhs	r0, #1
	strbhs	r0, [r5, #10]
.Ltmp792:
.LBB13_65:                              @   in Loop: Header=BB13_7 Depth=1
	@DEBUG_VALUE: digitalWriteOnce:frame <- %R9
	.loc	1 607 12                @ /root/Bela/projects/final_project_v6/render.cpp:607:12
	ldrb	r0, [r5, #12]
.Ltmp793:
	.loc	1 607 11 is_stmt 0      @ /root/Bela/projects/final_project_v6/render.cpp:607:11
	cmp	r0, #0
	beq	.LBB13_73
.Ltmp794:
@ BB#66:                                @   in Loop: Header=BB13_7 Depth=1
	@DEBUG_VALUE: digitalWriteOnce:frame <- %R9
	.loc	30 1325 56 is_stmt 1    @ ./include/Bela.h:1325:56
	ldr	r0, [sp, #8]            @ 4-byte Reload
	ands	r6, r0, #262144
.Ltmp795:
	@DEBUG_VALUE: gButton2Status <- %R6
	.loc	1 617 37 discriminator 1 @ /root/Bela/projects/final_project_v6/render.cpp:617:37
	ldrb	r0, [r5, #11]
	bne	.LBB13_69
.Ltmp796:
@ BB#67:                                @   in Loop: Header=BB13_7 Depth=1
	@DEBUG_VALUE: gButton2Status <- %R6
	@DEBUG_VALUE: digitalWriteOnce:frame <- %R9
	cmp	r0, #0
	beq	.LBB13_69
.Ltmp797:
@ BB#68:                                @   in Loop: Header=BB13_7 Depth=1
	@DEBUG_VALUE: gButton2Status <- %R6
	@DEBUG_VALUE: digitalWriteOnce:frame <- %R9
	.loc	9 656 66                @ /usr/bin/../lib/gcc/arm-linux-gnueabihf/6.3.0/../../../../include/c++/6.3.0/bits/stl_vector.h:656:66
	ldrd	r2, r3, [r7, #88]
.Ltmp798:
	.loc	1 208 14                @ /root/Bela/projects/final_project_v6/render.cpp:208:14
	movw	r4, :lower16:gVoices
.Ltmp799:
	.loc	1 619 28                @ /root/Bela/projects/final_project_v6/render.cpp:619:28
	ldr	r0, [r7, #12]
	mov	r7, #0
.Ltmp800:
	.loc	9 656 50                @ /usr/bin/../lib/gcc/arm-linux-gnueabihf/6.3.0/../../../../include/c++/6.3.0/bits/stl_vector.h:656:50
	sub	r1, r3, r2
.Ltmp801:
	.loc	1 208 14                @ /root/Bela/projects/final_project_v6/render.cpp:208:14
	movt	r4, :upper16:gVoices
.Ltmp802:
	.loc	1 619 28                @ /root/Bela/projects/final_project_v6/render.cpp:619:28
	add	r0, r0, #1
	.loc	1 620 13                @ /root/Bela/projects/final_project_v6/render.cpp:620:13
	cmp	r0, r1, asr #4
.Ltmp803:
	.loc	1 207 19                @ /root/Bela/projects/final_project_v6/render.cpp:207:19
	movw	r1, :lower16:.L_MergedGlobals.4
.Ltmp804:
	.loc	1 620 13                @ /root/Bela/projects/final_project_v6/render.cpp:620:13
	movhs	r0, r7
.Ltmp805:
	@DEBUG_VALUE: operator[]:__n <- %R0
	@DEBUG_VALUE: operator[]:__n <- %R0
	.loc	1 207 19                @ /root/Bela/projects/final_project_v6/render.cpp:207:19
	movt	r1, :upper16:.L_MergedGlobals.4
.Ltmp806:
	.loc	1 622 30                @ /root/Bela/projects/final_project_v6/render.cpp:622:30
	str	r0, [r1, #12]
.Ltmp807:
	@DEBUG_VALUE: i <- 0
	.loc	1 218 73                @ /root/Bela/projects/final_project_v6/render.cpp:218:73
	add	r1, r2, r0, lsl #4
	.loc	1 218 14 is_stmt 0 discriminator 1 @ /root/Bela/projects/final_project_v6/render.cpp:218:14
	mov	r0, r4
.Ltmp808:
	ldrb	r2, [r1, #12]
	bl	_ZN5Voice23setOscillatorAmplitudesERSt6vectorIfSaIfEEb
.Ltmp809:
	@DEBUG_VALUE: i <- 1
	.loc	1 207 19 is_stmt 1      @ /root/Bela/projects/final_project_v6/render.cpp:207:19
	movw	r0, :lower16:.L_MergedGlobals.4
	movw	r1, :lower16:.L_MergedGlobals.4
	movt	r0, :upper16:.L_MergedGlobals.4
	movt	r1, :upper16:.L_MergedGlobals.4
.Ltmp810:
	.loc	1 218 52                @ /root/Bela/projects/final_project_v6/render.cpp:218:52
	ldr	r0, [r0, #12]
.Ltmp811:
	.loc	9 781 32                @ /usr/bin/../lib/gcc/arm-linux-gnueabihf/6.3.0/../../../../include/c++/6.3.0/bits/stl_vector.h:781:32
	ldr	r1, [r1, #88]
.Ltmp812:
	.loc	1 218 73                @ /root/Bela/projects/final_project_v6/render.cpp:218:73
	add	r1, r1, r0, lsl #4
	.loc	1 218 14 is_stmt 0 discriminator 1 @ /root/Bela/projects/final_project_v6/render.cpp:218:14
	add	r0, r4, #76
	ldrb	r2, [r1, #12]
	bl	_ZN5Voice23setOscillatorAmplitudesERSt6vectorIfSaIfEEb
.Ltmp813:
	.loc	1 207 19 is_stmt 1      @ /root/Bela/projects/final_project_v6/render.cpp:207:19
	movw	r0, :lower16:.L_MergedGlobals.4
	movw	r1, :lower16:.L_MergedGlobals.4
	movt	r0, :upper16:.L_MergedGlobals.4
	movt	r1, :upper16:.L_MergedGlobals.4
.Ltmp814:
	.loc	1 218 52                @ /root/Bela/projects/final_project_v6/render.cpp:218:52
	ldr	r0, [r0, #12]
.Ltmp815:
	.loc	9 781 32                @ /usr/bin/../lib/gcc/arm-linux-gnueabihf/6.3.0/../../../../include/c++/6.3.0/bits/stl_vector.h:781:32
	ldr	r1, [r1, #88]
.Ltmp816:
	.loc	1 218 73                @ /root/Bela/projects/final_project_v6/render.cpp:218:73
	add	r1, r1, r0, lsl #4
	.loc	1 218 14 is_stmt 0 discriminator 1 @ /root/Bela/projects/final_project_v6/render.cpp:218:14
	add	r0, r4, #152
	ldrb	r2, [r1, #12]
	bl	_ZN5Voice23setOscillatorAmplitudesERSt6vectorIfSaIfEEb
.Ltmp817:
	.loc	1 207 19 is_stmt 1      @ /root/Bela/projects/final_project_v6/render.cpp:207:19
	movw	r0, :lower16:.L_MergedGlobals.4
	movw	r1, :lower16:.L_MergedGlobals.4
	movt	r0, :upper16:.L_MergedGlobals.4
	movt	r1, :upper16:.L_MergedGlobals.4
.Ltmp818:
	.loc	1 218 52                @ /root/Bela/projects/final_project_v6/render.cpp:218:52
	ldr	r0, [r0, #12]
.Ltmp819:
	.loc	9 781 32                @ /usr/bin/../lib/gcc/arm-linux-gnueabihf/6.3.0/../../../../include/c++/6.3.0/bits/stl_vector.h:781:32
	ldr	r1, [r1, #88]
.Ltmp820:
	.loc	1 218 73                @ /root/Bela/projects/final_project_v6/render.cpp:218:73
	add	r1, r1, r0, lsl #4
	.loc	1 218 14 is_stmt 0 discriminator 1 @ /root/Bela/projects/final_project_v6/render.cpp:218:14
	add	r0, r4, #228
	ldr	r4, [sp, #20]           @ 4-byte Reload
	ldrb	r2, [r1, #12]
	bl	_ZN5Voice23setOscillatorAmplitudesERSt6vectorIfSaIfEEb
.Ltmp821:
	.loc	1 625 28 is_stmt 1      @ /root/Bela/projects/final_project_v6/render.cpp:625:28
	strb	r7, [r5, #12]
	.loc	1 626 33                @ /root/Bela/projects/final_project_v6/render.cpp:626:33
	str	r7, [r5, #84]
.Ltmp822:
	.loc	1 207 19                @ /root/Bela/projects/final_project_v6/render.cpp:207:19
	movw	r7, :lower16:.L_MergedGlobals.4
.Ltmp823:
	.loc	1 628 38 discriminator 1 @ /root/Bela/projects/final_project_v6/render.cpp:628:38
	ldrb	r0, [r5, #11]
.Ltmp824:
	.loc	1 207 19                @ /root/Bela/projects/final_project_v6/render.cpp:207:19
	movt	r7, :upper16:.L_MergedGlobals.4
.Ltmp825:
.LBB13_69:                              @   in Loop: Header=BB13_7 Depth=1
	@DEBUG_VALUE: gButton2Status <- %R6
	@DEBUG_VALUE: digitalWriteOnce:frame <- %R9
	.loc	1 628 35                @ /root/Bela/projects/final_project_v6/render.cpp:628:35
	cmp	r6, #0
	beq	.LBB13_74
.Ltmp826:
@ BB#70:                                @   in Loop: Header=BB13_7 Depth=1
	@DEBUG_VALUE: gButton2Status <- %R6
	@DEBUG_VALUE: digitalWriteOnce:frame <- %R9
	cmp	r0, #0
	moveq	r0, #0
.Ltmp827:
	.loc	1 630 28                @ /root/Bela/projects/final_project_v6/render.cpp:630:28
	strbeq	r0, [r5, #12]
	.loc	1 631 33                @ /root/Bela/projects/final_project_v6/render.cpp:631:33
	streq	r0, [r5, #84]
	b	.LBB13_74
.Ltmp828:
	.p2align	3
@ BB#71:
.LCPI13_26:
	.long	0                       @ double -69
	.long	3226550272
	.p2align	3
@ BB#72:
.LCPI13_27:
	.long	1431655765              @ double 0.083333333333333329
	.long	1068848469
.LBB13_73:                              @   in Loop: Header=BB13_7 Depth=1
.Ltmp829:
	@DEBUG_VALUE: digitalWriteOnce:frame <- %R9
	.loc	1 609 31                @ /root/Bela/projects/final_project_v6/render.cpp:609:31
	ldr	r0, [r5, #84]
	add	r0, r0, #1
	str	r0, [r5, #84]
.Ltmp830:
	.loc	1 610 36                @ /root/Bela/projects/final_project_v6/render.cpp:610:36
	ldr	r1, [r5, #72]
.Ltmp831:
	.loc	1 610 9 is_stmt 0       @ /root/Bela/projects/final_project_v6/render.cpp:610:9
	cmp	r0, r1
.Ltmp832:
	.loc	1 588 25 is_stmt 1      @ /root/Bela/projects/final_project_v6/render.cpp:588:25
	movhs	r0, #1
.Ltmp833:
	.loc	1 612 25                @ /root/Bela/projects/final_project_v6/render.cpp:612:25
	strbhs	r0, [r5, #12]
.Ltmp834:
.LBB13_74:                              @   in Loop: Header=BB13_7 Depth=1
	@DEBUG_VALUE: digitalWriteOnce:frame <- %R9
	.loc	1 636 12                @ /root/Bela/projects/final_project_v6/render.cpp:636:12
	ldrb	r0, [r5, #8]
.Ltmp835:
	.loc	1 636 11 is_stmt 0      @ /root/Bela/projects/final_project_v6/render.cpp:636:11
	cmp	r0, #0
	beq	.LBB13_82
.Ltmp836:
@ BB#75:                                @   in Loop: Header=BB13_7 Depth=1
	@DEBUG_VALUE: digitalWriteOnce:frame <- %R9
	.loc	1 647 34 is_stmt 1      @ /root/Bela/projects/final_project_v6/render.cpp:647:34
	cmp	r4, #0
	bne	.LBB13_88
.Ltmp837:
@ BB#76:                                @   in Loop: Header=BB13_7 Depth=1
	@DEBUG_VALUE: digitalWriteOnce:frame <- %R9
	ldrb	r0, [r5, #7]
	cmp	r0, #0
	beq	.LBB13_88
.Ltmp838:
@ BB#77:                                @   in Loop: Header=BB13_7 Depth=1
	@DEBUG_VALUE: digitalWriteOnce:frame <- %R9
	.loc	1 647 68 is_stmt 0 discriminator 2 @ /root/Bela/projects/final_project_v6/render.cpp:647:68
	ldrb	r0, [r5, #13]
	.loc	1 647 85 discriminator 3 @ /root/Bela/projects/final_project_v6/render.cpp:647:85
	ldrb	r1, [r5, #14]
	.loc	1 647 34                @ /root/Bela/projects/final_project_v6/render.cpp:647:34
	orr	r0, r1, r0
	tst	r0, #255
	bne	.LBB13_88
.Ltmp839:
@ BB#78:                                @   in Loop: Header=BB13_7 Depth=1
	@DEBUG_VALUE: digitalWriteOnce:frame <- %R9
	mov	r1, #0
.Ltmp840:
	.loc	1 649 28 is_stmt 1      @ /root/Bela/projects/final_project_v6/render.cpp:649:28
	strb	r1, [r5, #8]
	.loc	1 650 33                @ /root/Bela/projects/final_project_v6/render.cpp:650:33
	str	r1, [r5, #76]
	.loc	1 652 28                @ /root/Bela/projects/final_project_v6/render.cpp:652:28
	ldr	r0, [r5, #88]
	.loc	1 652 26 is_stmt 0      @ /root/Bela/projects/final_project_v6/render.cpp:652:26
	str	r0, [r5, #92]
	.loc	1 653 36 is_stmt 1      @ /root/Bela/projects/final_project_v6/render.cpp:653:36
	strb	r1, [r5, #15]
	.loc	1 654 13                @ /root/Bela/projects/final_project_v6/render.cpp:654:13
	cmp	r0, #3
	bhi	.LBB13_88
.Ltmp841:
@ BB#79:                                @   in Loop: Header=BB13_7 Depth=1
	@DEBUG_VALUE: digitalWriteOnce:frame <- %R9
	adr	r1, .LJTI13_0
	lsl	r0, r0, #2
	ldr	pc, [r0, r1]
.Ltmp842:
@ BB#80:
	.p2align	2
.LJTI13_0:
	.long	.LBB13_81
	.long	.LBB13_83
	.long	.LBB13_84
	.long	.LBB13_85
.LBB13_81:                              @   in Loop: Header=BB13_7 Depth=1
.Ltmp843:
	@DEBUG_VALUE: digitalWriteOnce:frame <- %R9
	.loc	1 656 10                @ /root/Bela/projects/final_project_v6/render.cpp:656:10
	movw	r0, :lower16:.L.str.37
	movt	r0, :upper16:.L.str.37
	bl	rt_printf
	.loc	1 657 28                @ /root/Bela/projects/final_project_v6/render.cpp:657:28
	mov	r0, #1065353216
	str	r0, [r7]
	b	.LBB13_88
.Ltmp844:
.LBB13_82:                              @   in Loop: Header=BB13_7 Depth=1
	@DEBUG_VALUE: digitalWriteOnce:frame <- %R9
	.loc	1 638 31                @ /root/Bela/projects/final_project_v6/render.cpp:638:31
	ldr	r0, [r5, #76]
	mov	r8, r10
	add	r0, r0, #1
	str	r0, [r5, #76]
.Ltmp845:
	.loc	1 639 36                @ /root/Bela/projects/final_project_v6/render.cpp:639:36
	ldr	r1, [r5, #72]
.Ltmp846:
	.loc	1 639 9 is_stmt 0       @ /root/Bela/projects/final_project_v6/render.cpp:639:9
	cmp	r0, r1
.Ltmp847:
	.loc	1 588 25 is_stmt 1      @ /root/Bela/projects/final_project_v6/render.cpp:588:25
	movhs	r0, #1
.Ltmp848:
	.loc	1 641 25                @ /root/Bela/projects/final_project_v6/render.cpp:641:25
	strbhs	r0, [r5, #8]
	b	.LBB13_90
.Ltmp849:
.LBB13_83:                              @   in Loop: Header=BB13_7 Depth=1
	@DEBUG_VALUE: digitalWriteOnce:frame <- %R9
	.loc	1 661 10                @ /root/Bela/projects/final_project_v6/render.cpp:661:10
	movw	r0, :lower16:.L.str.38
	movt	r0, :upper16:.L.str.38
	b	.LBB13_87
.Ltmp850:
.LBB13_84:                              @   in Loop: Header=BB13_7 Depth=1
	@DEBUG_VALUE: digitalWriteOnce:frame <- %R9
	.loc	1 588 25                @ /root/Bela/projects/final_project_v6/render.cpp:588:25
	mov	r0, #1
	ldr	r4, [sp, #4]            @ 4-byte Reload
.Ltmp851:
	.loc	1 665 29                @ /root/Bela/projects/final_project_v6/render.cpp:665:29
	strb	r0, [r5, #14]
	.loc	1 666 27                @ /root/Bela/projects/final_project_v6/render.cpp:666:27
	vldr	s0, [r5, #44]
	.loc	1 666 20 is_stmt 0      @ /root/Bela/projects/final_project_v6/render.cpp:666:20
	mov	r0, r4
	bl	_ZN8Envelope6setBpmEf
	.loc	1 667 34 is_stmt 1      @ /root/Bela/projects/final_project_v6/render.cpp:667:34
	ldr	r1, [r5, #96]
	.loc	1 667 20 is_stmt 0      @ /root/Bela/projects/final_project_v6/render.cpp:667:20
	mov	r0, r4
	ldr	r4, [sp, #20]           @ 4-byte Reload
	bl	_ZN8Envelope13setLengthTypeEi
	mov	r0, #0
	.loc	1 668 25 is_stmt 1      @ /root/Bela/projects/final_project_v6/render.cpp:668:25
	strb	r0, [r5, #16]
	.loc	1 669 10                @ /root/Bela/projects/final_project_v6/render.cpp:669:10
	movw	r0, :lower16:.L.str.39
	movt	r0, :upper16:.L.str.39
	b	.LBB13_86
.Ltmp852:
.LBB13_85:                              @   in Loop: Header=BB13_7 Depth=1
	@DEBUG_VALUE: digitalWriteOnce:frame <- %R9
	.loc	1 588 25                @ /root/Bela/projects/final_project_v6/render.cpp:588:25
	mov	r0, #1
	ldr	r4, [sp, #4]            @ 4-byte Reload
.Ltmp853:
	.loc	1 674 29                @ /root/Bela/projects/final_project_v6/render.cpp:674:29
	strb	r0, [r5, #14]
	.loc	1 675 27                @ /root/Bela/projects/final_project_v6/render.cpp:675:27
	vldr	s0, [r5, #44]
	.loc	1 675 20 is_stmt 0      @ /root/Bela/projects/final_project_v6/render.cpp:675:20
	mov	r0, r4
	bl	_ZN8Envelope6setBpmEf
	.loc	1 676 34 is_stmt 1      @ /root/Bela/projects/final_project_v6/render.cpp:676:34
	ldr	r1, [r5, #100]
	.loc	1 676 20 is_stmt 0      @ /root/Bela/projects/final_project_v6/render.cpp:676:20
	mov	r0, r4
	ldr	r4, [sp, #20]           @ 4-byte Reload
	bl	_ZN8Envelope13setLengthTypeEi
	mov	r0, #0
	.loc	1 677 25 is_stmt 1      @ /root/Bela/projects/final_project_v6/render.cpp:677:25
	strb	r0, [r5, #16]
	.loc	1 678 10                @ /root/Bela/projects/final_project_v6/render.cpp:678:10
	movw	r0, :lower16:.L.str.41
	movt	r0, :upper16:.L.str.41
.Ltmp854:
.LBB13_86:                              @   in Loop: Header=BB13_7 Depth=1
	@DEBUG_VALUE: digitalWriteOnce:frame <- %R9
	bl	rt_printf
.Ltmp855:
	.loc	1 670 10                @ /root/Bela/projects/final_project_v6/render.cpp:670:10
	movw	r0, :lower16:.L.str.40
	movt	r0, :upper16:.L.str.40
.Ltmp856:
.LBB13_87:                              @   in Loop: Header=BB13_7 Depth=1
	@DEBUG_VALUE: digitalWriteOnce:frame <- %R9
	.loc	1 679 10                @ /root/Bela/projects/final_project_v6/render.cpp:679:10
	bl	rt_printf
.Ltmp857:
.LBB13_88:                              @   in Loop: Header=BB13_7 Depth=1
	@DEBUG_VALUE: digitalWriteOnce:frame <- %R9
	mov	r8, r10
.Ltmp858:
	.loc	1 682 35                @ /root/Bela/projects/final_project_v6/render.cpp:682:35
	cmp	r4, #0
	beq	.LBB13_90
.Ltmp859:
@ BB#89:                                @   in Loop: Header=BB13_7 Depth=1
	@DEBUG_VALUE: digitalWriteOnce:frame <- %R9
	ldrb	r0, [r5, #7]
	cmp	r0, #0
	moveq	r0, #0
.Ltmp860:
	.loc	1 684 28                @ /root/Bela/projects/final_project_v6/render.cpp:684:28
	strbeq	r0, [r5, #8]
	.loc	1 685 33                @ /root/Bela/projects/final_project_v6/render.cpp:685:33
	streq	r0, [r5, #76]
.Ltmp861:
.LBB13_90:                              @   in Loop: Header=BB13_7 Depth=1
	@DEBUG_VALUE: digitalWriteOnce:frame <- %R9
	.loc	1 690 11                @ /root/Bela/projects/final_project_v6/render.cpp:690:11
	ldr	r10, [r5, #48]
	.loc	1 690 28 is_stmt 0      @ /root/Bela/projects/final_project_v6/render.cpp:690:28
	ldr	r1, [r5, #56]
	.loc	1 690 26                @ /root/Bela/projects/final_project_v6/render.cpp:690:26
	mov	r0, r10
	bl	__aeabi_uidivmod
.Ltmp862:
	.loc	1 690 11                @ /root/Bela/projects/final_project_v6/render.cpp:690:11
	cmp	r1, #0
	bne	.LBB13_93
.Ltmp863:
@ BB#91:                                @   in Loop: Header=BB13_7 Depth=1
	@DEBUG_VALUE: digitalWriteOnce:frame <- %R9
	.loc	1 692 28 is_stmt 1      @ /root/Bela/projects/final_project_v6/render.cpp:692:28
	movw	r0, #52429
	movt	r0, #15820
	str	r0, [r5, #60]
.Ltmp864:
	.loc	1 693 12                @ /root/Bela/projects/final_project_v6/render.cpp:693:12
	ldrb	r0, [r5, #6]
.Ltmp865:
	.loc	1 693 12 is_stmt 0      @ /root/Bela/projects/final_project_v6/render.cpp:693:12
	cmp	r0, #0
	beq	.LBB13_93
.Ltmp866:
@ BB#92:                                @   in Loop: Header=BB13_7 Depth=1
	@DEBUG_VALUE: digitalWriteOnce:frame <- %R9
	.loc	1 694 17 is_stmt 1      @ /root/Bela/projects/final_project_v6/render.cpp:694:17
	movw	r0, :lower16:gPlayer
	movt	r0, :upper16:gPlayer
	bl	_ZN14MonoFilePlayer7triggerEv
.Ltmp867:
	.loc	1 698 11                @ /root/Bela/projects/final_project_v6/render.cpp:698:11
	ldr	r10, [r5, #48]
.Ltmp868:
.LBB13_93:                              @   in Loop: Header=BB13_7 Depth=1
	@DEBUG_VALUE: digitalWriteOnce:frame <- %R9
	.loc	1 698 29 is_stmt 0      @ /root/Bela/projects/final_project_v6/render.cpp:698:29
	ldr	r0, [r5, #52]
.Ltmp869:
	.loc	1 698 11                @ /root/Bela/projects/final_project_v6/render.cpp:698:11
	cmp	r10, r0
	bhs	.LBB13_95
.Ltmp870:
@ BB#94:                                @ %thread-pre-split
                                        @   in Loop: Header=BB13_7 Depth=1
	@DEBUG_VALUE: digitalWriteOnce:frame <- %R9
	mov	r10, r8
.Ltmp871:
	.loc	1 753 11 is_stmt 1      @ /root/Bela/projects/final_project_v6/render.cpp:753:11
	ldr	r0, [r5, #20]
	ldr	r8, [sp]                @ 4-byte Reload
	b	.LBB13_112
.Ltmp872:
.LBB13_95:                              @   in Loop: Header=BB13_7 Depth=1
	@DEBUG_VALUE: digitalWriteOnce:frame <- %R9
	.loc	1 700 28                @ /root/Bela/projects/final_project_v6/render.cpp:700:28
	movw	r0, #39322
.Ltmp873:
	.loc	1 207 21                @ /root/Bela/projects/final_project_v6/render.cpp:207:21
	movw	r6, :lower16:gChords
.Ltmp874:
	.loc	1 700 28                @ /root/Bela/projects/final_project_v6/render.cpp:700:28
	movt	r0, #16025
.Ltmp875:
	.loc	1 207 21                @ /root/Bela/projects/final_project_v6/render.cpp:207:21
	movt	r6, :upper16:gChords
.Ltmp876:
	.loc	1 700 28                @ /root/Bela/projects/final_project_v6/render.cpp:700:28
	str	r0, [r5, #60]
.Ltmp877:
	@DEBUG_VALUE: i <- 0
	.loc	1 207 29                @ /root/Bela/projects/final_project_v6/render.cpp:207:29
	ldr	r0, [r5, #20]
	.loc	1 207 21 is_stmt 0      @ /root/Bela/projects/final_project_v6/render.cpp:207:21
	rsb	r0, r0, r0, lsl #3
	add	r0, r6, r0, lsl #2
	.loc	1 207 44                @ /root/Bela/projects/final_project_v6/render.cpp:207:44
	bl	_ZN5Chord10buildChordEv
	.loc	1 208 14 is_stmt 1      @ /root/Bela/projects/final_project_v6/render.cpp:208:14
	movw	r4, :lower16:gVoices
	.loc	1 207 19                @ /root/Bela/projects/final_project_v6/render.cpp:207:19
	vstr	s0, [r7, #100]
	.loc	1 208 14                @ /root/Bela/projects/final_project_v6/render.cpp:208:14
	movt	r4, :upper16:gVoices
	mov	r0, r4
	bl	_ZN5Voice12setFrequencyEf
.Ltmp878:
	@DEBUG_VALUE: i <- 1
	.loc	1 207 29                @ /root/Bela/projects/final_project_v6/render.cpp:207:29
	ldr	r0, [r5, #20]
	.loc	1 207 21 is_stmt 0      @ /root/Bela/projects/final_project_v6/render.cpp:207:21
	rsb	r0, r0, r0, lsl #3
	add	r0, r6, r0, lsl #2
	.loc	1 207 44                @ /root/Bela/projects/final_project_v6/render.cpp:207:44
	bl	_ZN5Chord10buildChordEv
	.loc	1 208 14 is_stmt 1      @ /root/Bela/projects/final_project_v6/render.cpp:208:14
	vmov.f32	s0, s1
	add	r0, r4, #76
	.loc	1 207 19                @ /root/Bela/projects/final_project_v6/render.cpp:207:19
	vstr	s1, [r7, #104]
	.loc	1 208 14                @ /root/Bela/projects/final_project_v6/render.cpp:208:14
	bl	_ZN5Voice12setFrequencyEf
	.loc	1 207 29                @ /root/Bela/projects/final_project_v6/render.cpp:207:29
	ldr	r0, [r5, #20]
	.loc	1 207 21 is_stmt 0      @ /root/Bela/projects/final_project_v6/render.cpp:207:21
	rsb	r0, r0, r0, lsl #3
	add	r0, r6, r0, lsl #2
	.loc	1 207 44                @ /root/Bela/projects/final_project_v6/render.cpp:207:44
	bl	_ZN5Chord10buildChordEv
	.loc	1 208 14 is_stmt 1      @ /root/Bela/projects/final_project_v6/render.cpp:208:14
	vmov.f32	s0, s2
	add	r0, r4, #152
	.loc	1 207 19                @ /root/Bela/projects/final_project_v6/render.cpp:207:19
	vstr	s2, [r7, #108]
	.loc	1 208 14                @ /root/Bela/projects/final_project_v6/render.cpp:208:14
	bl	_ZN5Voice12setFrequencyEf
	.loc	1 207 29                @ /root/Bela/projects/final_project_v6/render.cpp:207:29
	ldr	r0, [r5, #20]
	.loc	1 207 21 is_stmt 0      @ /root/Bela/projects/final_project_v6/render.cpp:207:21
	rsb	r0, r0, r0, lsl #3
	add	r0, r6, r0, lsl #2
	.loc	1 207 44                @ /root/Bela/projects/final_project_v6/render.cpp:207:44
	bl	_ZN5Chord10buildChordEv
	.loc	1 208 14 is_stmt 1      @ /root/Bela/projects/final_project_v6/render.cpp:208:14
	vmov.f32	s0, s3
	add	r0, r4, #228
	.loc	1 207 19                @ /root/Bela/projects/final_project_v6/render.cpp:207:19
	vstr	s3, [r7, #112]
	.loc	1 208 14                @ /root/Bela/projects/final_project_v6/render.cpp:208:14
	bl	_ZN5Voice12setFrequencyEf
.Ltmp879:
	.loc	1 704 13                @ /root/Bela/projects/final_project_v6/render.cpp:704:13
	ldr	r0, [r5, #92]
	mov	r10, r8
	.loc	1 704 48 is_stmt 0      @ /root/Bela/projects/final_project_v6/render.cpp:704:48
	cmp	r0, #3
	bne	.LBB13_98
.Ltmp880:
@ BB#96:                                @   in Loop: Header=BB13_7 Depth=1
	@DEBUG_VALUE: digitalWriteOnce:frame <- %R9
	ldrb	r0, [r5, #13]
	cmp	r0, #0
	beq	.LBB13_98
.Ltmp881:
@ BB#97:                                @   in Loop: Header=BB13_7 Depth=1
	@DEBUG_VALUE: digitalWriteOnce:frame <- %R9
	mov	r0, #0
.Ltmp882:
	.loc	1 706 25 is_stmt 1      @ /root/Bela/projects/final_project_v6/render.cpp:706:25
	strb	r0, [r5, #13]
	.loc	1 707 19                @ /root/Bela/projects/final_project_v6/render.cpp:707:19
	ldr	r0, [sp, #4]            @ 4-byte Reload
	bl	_ZN8Envelope13stopRecordingEv
.Ltmp883:
	.loc	1 588 25                @ /root/Bela/projects/final_project_v6/render.cpp:588:25
	mov	r0, #1
.Ltmp884:
	.loc	1 708 36                @ /root/Bela/projects/final_project_v6/render.cpp:708:36
	strb	r0, [r5, #15]
.Ltmp885:
	.loc	1 730 10                @ /root/Bela/projects/final_project_v6/render.cpp:730:10
	movw	r0, :lower16:.L.str.42
	movt	r0, :upper16:.L.str.42
.Ltmp886:
	.loc	1 709 9                 @ /root/Bela/projects/final_project_v6/render.cpp:709:9
	bl	rt_printf
.Ltmp887:
.LBB13_98:                              @   in Loop: Header=BB13_7 Depth=1
	@DEBUG_VALUE: digitalWriteOnce:frame <- %R9
	ldr	r8, [sp]                @ 4-byte Reload
	ldr	r4, [sp, #20]           @ 4-byte Reload
.Ltmp888:
	.loc	1 712 12                @ /root/Bela/projects/final_project_v6/render.cpp:712:12
	ldr	r0, [r5, #20]
.Ltmp889:
	.loc	1 712 12 is_stmt 0      @ /root/Bela/projects/final_project_v6/render.cpp:712:12
	cmp	r0, #0
	bne	.LBB13_106
.Ltmp890:
@ BB#99:                                @   in Loop: Header=BB13_7 Depth=1
	@DEBUG_VALUE: digitalWriteOnce:frame <- %R9
	.loc	1 714 29 is_stmt 1      @ /root/Bela/projects/final_project_v6/render.cpp:714:29
	mov	r0, #1056964608
	str	r0, [r5, #60]
.Ltmp891:
	.loc	1 717 13                @ /root/Bela/projects/final_project_v6/render.cpp:717:13
	ldrb	r0, [r5, #14]
.Ltmp892:
	.loc	1 717 13 is_stmt 0      @ /root/Bela/projects/final_project_v6/render.cpp:717:13
	cmp	r0, #0
	beq	.LBB13_101
.Ltmp893:
@ BB#100:                               @   in Loop: Header=BB13_7 Depth=1
	@DEBUG_VALUE: digitalWriteOnce:frame <- %R9
	.loc	1 588 25 is_stmt 1      @ /root/Bela/projects/final_project_v6/render.cpp:588:25
	mov	r0, #1
.Ltmp894:
	.loc	1 720 23                @ /root/Bela/projects/final_project_v6/render.cpp:720:23
	strh	r0, [r5, #13]
	.loc	1 721 20                @ /root/Bela/projects/final_project_v6/render.cpp:721:20
	ldr	r0, [sp, #4]            @ 4-byte Reload
	bl	_ZN8Envelope14beginRecordingEv
	.loc	1 722 10                @ /root/Bela/projects/final_project_v6/render.cpp:722:10
	movw	r0, :lower16:.L.str.43
	movt	r0, :upper16:.L.str.43
	bl	rt_printf
	b	.LBB13_106
.Ltmp895:
.LBB13_101:                             @   in Loop: Header=BB13_7 Depth=1
	@DEBUG_VALUE: digitalWriteOnce:frame <- %R9
	.loc	1 725 19                @ /root/Bela/projects/final_project_v6/render.cpp:725:19
	ldr	r0, [r5, #92]
	.loc	1 725 57 is_stmt 0      @ /root/Bela/projects/final_project_v6/render.cpp:725:57
	cmp	r0, #2
	bne	.LBB13_104
.Ltmp896:
@ BB#102:                               @   in Loop: Header=BB13_7 Depth=1
	@DEBUG_VALUE: digitalWriteOnce:frame <- %R9
	ldrb	r0, [r5, #13]
	cmp	r0, #0
	beq	.LBB13_104
.Ltmp897:
@ BB#103:                               @   in Loop: Header=BB13_7 Depth=1
	@DEBUG_VALUE: digitalWriteOnce:frame <- %R9
	mov	r0, #0
.Ltmp898:
	.loc	1 727 23 is_stmt 1      @ /root/Bela/projects/final_project_v6/render.cpp:727:23
	strb	r0, [r5, #13]
	.loc	1 728 20                @ /root/Bela/projects/final_project_v6/render.cpp:728:20
	ldr	r0, [sp, #4]            @ 4-byte Reload
	bl	_ZN8Envelope13stopRecordingEv
.Ltmp899:
	.loc	1 588 25                @ /root/Bela/projects/final_project_v6/render.cpp:588:25
	mov	r0, #1
.Ltmp900:
	.loc	1 729 37                @ /root/Bela/projects/final_project_v6/render.cpp:729:37
	strb	r0, [r5, #15]
	.loc	1 730 10                @ /root/Bela/projects/final_project_v6/render.cpp:730:10
	movw	r0, :lower16:.L.str.42
	movt	r0, :upper16:.L.str.42
	bl	rt_printf
	b	.LBB13_106
.Ltmp901:
.LBB13_104:                             @   in Loop: Header=BB13_7 Depth=1
	@DEBUG_VALUE: digitalWriteOnce:frame <- %R9
	.loc	1 733 18                @ /root/Bela/projects/final_project_v6/render.cpp:733:18
	ldrb	r0, [r5, #15]
.Ltmp902:
	.loc	1 733 18 is_stmt 0      @ /root/Bela/projects/final_project_v6/render.cpp:733:18
	cmp	r0, #0
	beq	.LBB13_106
.Ltmp903:
@ BB#105:                               @   in Loop: Header=BB13_7 Depth=1
	@DEBUG_VALUE: digitalWriteOnce:frame <- %R9
	.loc	1 735 20 is_stmt 1      @ /root/Bela/projects/final_project_v6/render.cpp:735:20
	ldr	r0, [sp, #4]            @ 4-byte Reload
	bl	_ZN8Envelope7restartEv
.Ltmp904:
.LBB13_106:                             @   in Loop: Header=BB13_7 Depth=1
	@DEBUG_VALUE: digitalWriteOnce:frame <- %R9
	.loc	1 739 12                @ /root/Bela/projects/final_project_v6/render.cpp:739:12
	ldrb	r0, [r5, #6]
.Ltmp905:
	.loc	1 739 12 is_stmt 0      @ /root/Bela/projects/final_project_v6/render.cpp:739:12
	cmp	r0, #0
	beq	.LBB13_108
.Ltmp906:
@ BB#107:                               @   in Loop: Header=BB13_7 Depth=1
	@DEBUG_VALUE: digitalWriteOnce:frame <- %R9
	.loc	1 694 17 is_stmt 1      @ /root/Bela/projects/final_project_v6/render.cpp:694:17
	movw	r0, :lower16:gPlayer
	movt	r0, :upper16:gPlayer
.Ltmp907:
	.loc	1 741 17                @ /root/Bela/projects/final_project_v6/render.cpp:741:17
	bl	_ZN14MonoFilePlayer7triggerEv
.Ltmp908:
.LBB13_108:                             @   in Loop: Header=BB13_7 Depth=1
	@DEBUG_VALUE: digitalWriteOnce:frame <- %R9
	.loc	1 744 12                @ /root/Bela/projects/final_project_v6/render.cpp:744:12
	ldrb	r0, [r5, #15]
	.loc	1 744 39 is_stmt 0      @ /root/Bela/projects/final_project_v6/render.cpp:744:39
	cmp	r0, #0
	beq	.LBB13_111
.Ltmp909:
@ BB#109:                               @   in Loop: Header=BB13_7 Depth=1
	@DEBUG_VALUE: digitalWriteOnce:frame <- %R9
	.loc	1 744 43 discriminator 1 @ /root/Bela/projects/final_project_v6/render.cpp:744:43
	ldr	r0, [r5, #92]
	cmp	r0, #3
	bne	.LBB13_111
.Ltmp910:
@ BB#110:                               @   in Loop: Header=BB13_7 Depth=1
	@DEBUG_VALUE: digitalWriteOnce:frame <- %R9
	.loc	1 746 19 is_stmt 1      @ /root/Bela/projects/final_project_v6/render.cpp:746:19
	ldr	r0, [sp, #4]            @ 4-byte Reload
	bl	_ZN8Envelope7restartEv
.Ltmp911:
.LBB13_111:                             @   in Loop: Header=BB13_7 Depth=1
	@DEBUG_VALUE: digitalWriteOnce:frame <- %R9
	.loc	1 749 21                @ /root/Bela/projects/final_project_v6/render.cpp:749:21
	ldr	r0, [r5, #20]
	mov	r1, #0
	add	r0, r0, #1
	str	r0, [r5, #20]
	.loc	1 750 23                @ /root/Bela/projects/final_project_v6/render.cpp:750:23
	str	r1, [r5, #48]
.Ltmp912:
.LBB13_112:                             @   in Loop: Header=BB13_7 Depth=1
	@DEBUG_VALUE: digitalWriteOnce:frame <- %R9
	.loc	1 753 11                @ /root/Bela/projects/final_project_v6/render.cpp:753:11
	cmp	r0, #8
	movhs	r0, #0
.Ltmp913:
	.loc	1 755 22                @ /root/Bela/projects/final_project_v6/render.cpp:755:22
	strhs	r0, [r5, #20]
.Ltmp914:
	.loc	1 758 11                @ /root/Bela/projects/final_project_v6/render.cpp:758:11
	ldrb	r0, [r5, #6]
.Ltmp915:
	.loc	1 758 11 is_stmt 0      @ /root/Bela/projects/final_project_v6/render.cpp:758:11
	cmp	r0, #0
	beq	.LBB13_114
.Ltmp916:
@ BB#113:                               @   in Loop: Header=BB13_7 Depth=1
	@DEBUG_VALUE: digitalWriteOnce:frame <- %R9
	.loc	1 694 17 is_stmt 1      @ /root/Bela/projects/final_project_v6/render.cpp:694:17
	movw	r0, :lower16:gPlayer
.Ltmp917:
	.loc	1 760 15                @ /root/Bela/projects/final_project_v6/render.cpp:760:15
	vldr	s18, [r5, #60]
.Ltmp918:
	.loc	1 694 17                @ /root/Bela/projects/final_project_v6/render.cpp:694:17
	movt	r0, :upper16:gPlayer
.Ltmp919:
	.loc	1 760 45                @ /root/Bela/projects/final_project_v6/render.cpp:760:45
	bl	_ZN14MonoFilePlayer7processEv
                                        @ kill: %S0<def> %S0<kill> %D0<def>
	.loc	1 760 35 is_stmt 0      @ /root/Bela/projects/final_project_v6/render.cpp:760:35
	vmul.f32	d16, d0, d9
	.loc	1 760 12                @ /root/Bela/projects/final_project_v6/render.cpp:760:12
	vadd.f32	d8, d16, d8
.Ltmp920:
	@DEBUG_VALUE: out <- %S16
.LBB13_114:                             @   in Loop: Header=BB13_7 Depth=1
	@DEBUG_VALUE: digitalWriteOnce:frame <- %R9
	.loc	1 765 7 is_stmt 1       @ /root/Bela/projects/final_project_v6/render.cpp:765:7
	ldrb	r0, [r5, #1]
.Ltmp921:
	.loc	1 765 7 is_stmt 0       @ /root/Bela/projects/final_project_v6/render.cpp:765:7
	cmp	r0, #0
	beq	.LBB13_119
.Ltmp922:
@ BB#115:                               @   in Loop: Header=BB13_7 Depth=1
	@DEBUG_VALUE: digitalWriteOnce:frame <- %R9
	.loc	1 767 38 is_stmt 1      @ /root/Bela/projects/final_project_v6/render.cpp:767:38
	ldr	r0, [sp, #12]           @ 4-byte Reload
	cmp	r0, #0
	bne	.LBB13_118
.Ltmp923:
@ BB#116:                               @   in Loop: Header=BB13_7 Depth=1
	@DEBUG_VALUE: digitalWriteOnce:frame <- %R9
	ldrb	r0, [r5, #15]
	cmp	r0, #0
	beq	.LBB13_118
.Ltmp924:
@ BB#117:                               @   in Loop: Header=BB13_7 Depth=1
	@DEBUG_VALUE: digitalWriteOnce:frame <- %R9
	.loc	1 769 38                @ /root/Bela/projects/final_project_v6/render.cpp:769:38
	ldr	r0, [sp, #4]            @ 4-byte Reload
	bl	_ZN8Envelope7processEv
	.loc	1 769 26 is_stmt 0      @ /root/Bela/projects/final_project_v6/render.cpp:769:26
	vstr	s0, [r7]
.Ltmp925:
.LBB13_118:                             @ %.preheader222.preheader
                                        @   in Loop: Header=BB13_7 Depth=1
	@DEBUG_VALUE: digitalWriteOnce:frame <- %R9
	.loc	1 208 14 is_stmt 1      @ /root/Bela/projects/final_project_v6/render.cpp:208:14
	movw	r6, :lower16:gVoices
.Ltmp926:
	.loc	1 776 21                @ /root/Bela/projects/final_project_v6/render.cpp:776:21
	vldr	s18, [r5, #124]
.Ltmp927:
	.loc	1 208 14                @ /root/Bela/projects/final_project_v6/render.cpp:208:14
	movt	r6, :upper16:gVoices
.Ltmp928:
	.loc	1 776 45                @ /root/Bela/projects/final_project_v6/render.cpp:776:45
	mov	r0, r6
	bl	_ZN5Voice7processEv
                                        @ kill: %S0<def> %S0<kill> %D0<def>
	add	r0, r6, #76
	.loc	1 776 57 is_stmt 0      @ /root/Bela/projects/final_project_v6/render.cpp:776:57
	vldr	s2, [r7]
	.loc	1 776 32                @ /root/Bela/projects/final_project_v6/render.cpp:776:32
	vmul.f32	d16, d0, d9
.Ltmp929:
	@DEBUG_VALUE: i <- 1
	.loc	1 776 21                @ /root/Bela/projects/final_project_v6/render.cpp:776:21
	vldr	s18, [r5, #124]
	.loc	1 776 55                @ /root/Bela/projects/final_project_v6/render.cpp:776:55
	vmul.f32	d10, d16, d1
	.loc	1 776 45                @ /root/Bela/projects/final_project_v6/render.cpp:776:45
	bl	_ZN5Voice7processEv
                                        @ kill: %S0<def> %S0<kill> %D0<def>
	add	r0, r6, #152
.Ltmp930:
	@DEBUG_VALUE: voicesOut <- %S20
	.loc	1 776 32                @ /root/Bela/projects/final_project_v6/render.cpp:776:32
	vmul.f32	d16, d0, d9
	.loc	1 776 57                @ /root/Bela/projects/final_project_v6/render.cpp:776:57
	vldr	s0, [r7]
	.loc	1 776 21                @ /root/Bela/projects/final_project_v6/render.cpp:776:21
	vldr	s18, [r5, #124]
	.loc	1 776 55                @ /root/Bela/projects/final_project_v6/render.cpp:776:55
	vmul.f32	d16, d16, d0
	.loc	1 776 18                @ /root/Bela/projects/final_project_v6/render.cpp:776:18
	vadd.f32	d10, d16, d10
.Ltmp931:
	.loc	1 776 45                @ /root/Bela/projects/final_project_v6/render.cpp:776:45
	bl	_ZN5Voice7processEv
                                        @ kill: %S0<def> %S0<kill> %D0<def>
	add	r0, r6, #228
	.loc	1 776 32                @ /root/Bela/projects/final_project_v6/render.cpp:776:32
	vmul.f32	d16, d0, d9
	.loc	1 776 57                @ /root/Bela/projects/final_project_v6/render.cpp:776:57
	vldr	s0, [r7]
	.loc	1 776 21                @ /root/Bela/projects/final_project_v6/render.cpp:776:21
	vldr	s18, [r5, #124]
	.loc	1 776 55                @ /root/Bela/projects/final_project_v6/render.cpp:776:55
	vmul.f32	d15, d16, d0
	.loc	1 776 45                @ /root/Bela/projects/final_project_v6/render.cpp:776:45
	bl	_ZN5Voice7processEv
                                        @ kill: %S0<def> %S0<kill> %D0<def>
	.loc	1 776 18                @ /root/Bela/projects/final_project_v6/render.cpp:776:18
	vadd.f32	d17, d15, d10
.Ltmp932:
	.loc	15 85 20 is_stmt 1      @ ./libraries/Biquad/Biquad.h:85:20
	movw	r0, :lower16:.L_MergedGlobals.7
.Ltmp933:
	.loc	1 776 32                @ /root/Bela/projects/final_project_v6/render.cpp:776:32
	vmul.f32	d16, d0, d9
	.loc	1 776 57 is_stmt 0      @ /root/Bela/projects/final_project_v6/render.cpp:776:57
	vldr	s0, [r7]
.Ltmp934:
	.loc	15 85 20 is_stmt 1      @ ./libraries/Biquad/Biquad.h:85:20
	movt	r0, :upper16:.L_MergedGlobals.7
	.loc	15 86 12                @ ./libraries/Biquad/Biquad.h:86:12
	vldr	d18, [r0, #16]
	.loc	15 85 25                @ ./libraries/Biquad/Biquad.h:85:25
	vldr	d20, [r0, #104]
.Ltmp935:
	.loc	1 776 55                @ /root/Bela/projects/final_project_v6/render.cpp:776:55
	vmul.f32	d16, d16, d0
.Ltmp936:
	.loc	15 86 22                @ ./libraries/Biquad/Biquad.h:86:22
	vldr	d19, [r0, #32]
	.loc	15 86 17 is_stmt 0      @ ./libraries/Biquad/Biquad.h:86:17
	vldr	d21, [r0, #112]
.Ltmp937:
